

Microchip MPLAB XC8 Assembler V3.00 build 20241204225717 
                                                                                               Sun Dec 14 16:19:56 2025

Microchip MPLAB XC8 C Compiler v3.00 (Free license) build 20241204225717 Og1 
     1                           	processor	18F4520
     2                           	fnconf	rparam,??,?,0
     3                           	pagewidth 120
     4                           	opt	flic
     5                           	psect	idataCOMRAM,global,class=CODE,space=0,delta=1,noexec
     6                           	psect	smallconst,global,reloc=2,class=SMALLCONST,space=0,delta=1,noexec
     7                           	psect	cinit,global,reloc=2,class=CODE,space=0,delta=1
     8                           	psect	bssCOMRAM,global,class=COMRAM,space=1,delta=1,lowdata,noexec
     9                           	psect	dataCOMRAM,global,class=COMRAM,space=1,delta=1,lowdata,noexec
    10                           	psect	bssBANK0,global,class=BANK0,space=1,delta=1,lowdata,noexec
    11                           	psect	cstackBANK1,global,class=BANK1,space=1,delta=1,lowdata,noexec
    12                           	psect	cstackBANK0,global,class=BANK0,space=1,delta=1,lowdata,noexec
    13                           	psect	cstackCOMRAM,global,class=COMRAM,space=1,delta=1,lowdata,noexec
    14                           	psect	text0,global,reloc=2,class=CODE,space=0,delta=1
    15                           	psect	text1,global,reloc=2,class=CODE,space=0,delta=1
    16                           	psect	text2,global,reloc=2,class=CODE,space=0,delta=1
    17                           	psect	text3,global,reloc=2,class=CODE,space=0,delta=1
    18                           	psect	text4,global,reloc=2,class=CODE,space=0,delta=1
    19                           	psect	text5,global,reloc=2,class=CODE,space=0,delta=1
    20                           	psect	text6,global,reloc=2,class=CODE,space=0,delta=1
    21                           	psect	text7,global,reloc=2,class=CODE,space=0,delta=1
    22                           	psect	text8,global,reloc=2,class=CODE,space=0,delta=1
    23                           	psect	text9,global,reloc=2,class=CODE,space=0,delta=1
    24                           	psect	text10,global,reloc=2,class=CODE,space=0,delta=1
    25                           	psect	intcodelo,global,reloc=2,class=CODE,space=0,delta=1
    26                           	psect	text12,global,reloc=2,class=CODE,space=0,delta=1
    27                           	psect	text13,global,reloc=2,class=CODE,space=0,delta=1
    28                           	psect	intcode,global,reloc=2,class=CODE,space=0,delta=1
    29                           	psect	intcode_body,global,reloc=2,class=CODE,space=0,delta=1
    30                           	psect	text15,global,reloc=2,class=CODE,space=0,delta=1
    31                           	psect	text16,global,reloc=2,class=CODE,space=0,delta=1
    32                           	psect	text17,global,reloc=2,class=CODE,space=0,delta=1
    33                           	psect	text18,global,reloc=2,class=CODE,space=0,delta=1
    34                           	psect	text19,global,reloc=2,class=CODE,space=0,delta=1
    35                           	psect	text20,global,reloc=2,class=CODE,space=0,delta=1,group=3
    36                           	psect	text21,global,reloc=2,class=CODE,space=0,delta=1,group=1
    37                           	psect	text22,global,reloc=2,class=CODE,space=0,delta=1,group=1
    38                           	psect	text23,global,reloc=2,class=CODE,space=0,delta=1,group=3
    39                           	psect	text24,global,reloc=2,class=CODE,space=0,delta=1,group=3
    40                           	psect	text25,global,reloc=2,class=CODE,space=0,delta=1,group=3
    41                           	psect	text26,global,reloc=2,class=CODE,space=0,delta=1,group=2
    42                           	psect	text27,global,reloc=2,class=CODE,space=0,delta=1,group=2
    43                           	psect	text28,global,reloc=2,class=CODE,space=0,delta=1
    44                           	psect	text29,global,reloc=2,class=CODE,space=0,delta=1
    45                           	psect	intsave_regs,global,class=BIGRAM,space=1,delta=1,noexec
    46                           	psect	rparam,global,class=COMRAM,space=1,delta=1,noexec
    47                           	psect	temp,global,ovrld,common,class=COMRAM,space=1,delta=1,lowdata
    48                           	psect	idloc,global,abs,ovrld,class=IDLOC,space=5,delta=1,noexec
    49                           	psect	config,global,abs,ovrld,class=CONFIG,space=4,delta=1,noexec
    50   000000                     
    51                           ; Generated 05/12/2024 GMT
    52                           ; 
    53                           ; Copyright © 2024, Microchip Technology Inc. and its subsidiaries ("Microchip")
    54                           ; All rights reserved.
    55                           ; 
    56                           ; This software is developed by Microchip Technology Inc. and its subsidiaries ("Microch
      +                          ip").
    57                           ; 
    58                           ; Redistribution and use in source and binary forms, with or without modification, are
    59                           ; permitted provided that the following conditions are met:
    60                           ; 
    61                           ;     1. Redistributions of source code must retain the above copyright notice, this lis
      +                          t of
    62                           ;        conditions and the following disclaimer.
    63                           ; 
    64                           ;     2. Redistributions in binary form must reproduce the above copyright notice, this 
      +                          list
    65                           ;        of conditions and the following disclaimer in the documentation and/or other
    66                           ;        materials provided with the distribution. Publication is not required when
    67                           ;        this file is used in an embedded application.
    68                           ; 
    69                           ;     3. Microchip's name may not be used to endorse or promote products derived from th
      +                          is
    70                           ;        software without specific prior written permission.
    71                           ; 
    72                           ; THIS SOFTWARE IS PROVIDED BY MICROCHIP "AS IS" AND ANY EXPRESS OR IMPLIED WARRANTIES,
    73                           ; INCLUDING, BUT NOT LIMITED TO, THE IMPLIED WARRANTIES OF MERCHANTABILITY AND FITNESS F
      +                          OR
    74                           ; PURPOSE ARE DISCLAIMED.  IN NO EVENT SHALL MICROCHIP BE LIABLE FOR ANY DIRECT, INDIREC
      +                          T,
    75                           ; INCIDENTAL, SPECIAL, EXEMPLARY, OR CONSEQUENTIAL DAMAGES (INCLUDING BUT NOT LIMITED TO
    76                           ; PROCUREMENT OF SUBSTITUTE GOODS OR SERVICES; LOSS OF USE, DATA OR PROFITS; OR BUSINESS
    77                           ; INTERRUPTION) HOWSOEVER CAUSED AND ON ANY THEORY OF LIABILITY, WHETHER IN CONTRACT, ST
      +                          RICT
    78                           ; LIABILITY, OR TORT (INCLUDING NEGLIGENCE OR OTHERWISE) ARISING IN ANY WAY OUT OF THE U
      +                          SE OF
    79                           ; THIS SOFTWARE, EVEN IF ADVISED OF THE POSSIBILITY OF SUCH DAMAGE.
    80                           ; 
    81                           ; 
    82                           ; Code-generator required, PIC18F4520 Definitions
    83                           ; 
    84                           ; SFR Addresses
    85   000FE0                     bsr             equ	4064
    86   000FE9                     fsr0            equ	4073
    87   000FEA                     fsr0h           equ	4074
    88   000FE9                     fsr0l           equ	4073
    89   000FE1                     fsr1            equ	4065
    90   000FE2                     fsr1h           equ	4066
    91   000FE1                     fsr1l           equ	4065
    92   000FD9                     fsr2            equ	4057
    93   000FDA                     fsr2h           equ	4058
    94   000FD9                     fsr2l           equ	4057
    95   000FEF                     indf0           equ	4079
    96   000FE7                     indf1           equ	4071
    97   000FDF                     indf2           equ	4063
    98   000FF2                     intcon          equ	4082
    99   000000                     nvmcon          equ	0
   100   000FF9                     pcl             equ	4089
   101   000FFA                     pclath          equ	4090
   102   000FFB                     pclatu          equ	4091
   103   000FEB                     plusw0          equ	4075
   104   000FE3                     plusw1          equ	4067
   105   000FDB                     plusw2          equ	4059
   106   000FED                     postdec0        equ	4077
   107   000FE5                     postdec1        equ	4069
   108   000FDD                     postdec2        equ	4061
   109   000FEE                     postinc0        equ	4078
   110   000FE6                     postinc1        equ	4070
   111   000FDE                     postinc2        equ	4062
   112   000FEC                     preinc0         equ	4076
   113   000FE4                     preinc1         equ	4068
   114   000FDC                     preinc2         equ	4060
   115   000FF3                     prod            equ	4083
   116   000FF4                     prodh           equ	4084
   117   000FF3                     prodl           equ	4083
   118   000FD8                     status          equ	4056
   119   000FF5                     tablat          equ	4085
   120   000FF6                     tblptr          equ	4086
   121   000FF7                     tblptrh         equ	4087
   122   000FF6                     tblptrl         equ	4086
   123   000FF8                     tblptru         equ	4088
   124   000FFD                     tosl            equ	4093
   125   000FE8                     wreg            equ	4072
   126   000F80                     PORTA           equ	3968	;# 
   127   000F81                     PORTB           equ	3969	;# 
   128   000F82                     PORTC           equ	3970	;# 
   129   000F83                     PORTD           equ	3971	;# 
   130   000F84                     PORTE           equ	3972	;# 
   131   000F89                     LATA            equ	3977	;# 
   132   000F8A                     LATB            equ	3978	;# 
   133   000F8B                     LATC            equ	3979	;# 
   134   000F8C                     LATD            equ	3980	;# 
   135   000F8D                     LATE            equ	3981	;# 
   136   000F92                     TRISA           equ	3986	;# 
   137   000F92                     DDRA            equ	3986	;# 
   138   000F93                     TRISB           equ	3987	;# 
   139   000F93                     DDRB            equ	3987	;# 
   140   000F94                     TRISC           equ	3988	;# 
   141   000F94                     DDRC            equ	3988	;# 
   142   000F95                     TRISD           equ	3989	;# 
   143   000F95                     DDRD            equ	3989	;# 
   144   000F96                     TRISE           equ	3990	;# 
   145   000F96                     DDRE            equ	3990	;# 
   146   000F9B                     OSCTUNE         equ	3995	;# 
   147   000F9D                     PIE1            equ	3997	;# 
   148   000F9E                     PIR1            equ	3998	;# 
   149   000F9F                     IPR1            equ	3999	;# 
   150   000FA0                     PIE2            equ	4000	;# 
   151   000FA1                     PIR2            equ	4001	;# 
   152   000FA2                     IPR2            equ	4002	;# 
   153   000FA6                     EECON1          equ	4006	;# 
   154   000FA7                     EECON2          equ	4007	;# 
   155   000FA8                     EEDATA          equ	4008	;# 
   156   000FA9                     EEADR           equ	4009	;# 
   157   000FAB                     RCSTA           equ	4011	;# 
   158   000FAB                     RCSTA1          equ	4011	;# 
   159   000FAC                     TXSTA           equ	4012	;# 
   160   000FAC                     TXSTA1          equ	4012	;# 
   161   000FAD                     TXREG           equ	4013	;# 
   162   000FAD                     TXREG1          equ	4013	;# 
   163   000FAE                     RCREG           equ	4014	;# 
   164   000FAE                     RCREG1          equ	4014	;# 
   165   000FAF                     SPBRG           equ	4015	;# 
   166   000FAF                     SPBRG1          equ	4015	;# 
   167   000FB0                     SPBRGH          equ	4016	;# 
   168   000FB1                     T3CON           equ	4017	;# 
   169   000FB2                     TMR3            equ	4018	;# 
   170   000FB2                     TMR3L           equ	4018	;# 
   171   000FB3                     TMR3H           equ	4019	;# 
   172   000FB4                     CMCON           equ	4020	;# 
   173   000FB5                     CVRCON          equ	4021	;# 
   174   000FB6                     ECCP1AS         equ	4022	;# 
   175   000FB6                     ECCPAS          equ	4022	;# 
   176   000FB7                     PWM1CON         equ	4023	;# 
   177   000FB7                     ECCP1DEL        equ	4023	;# 
   178   000FB8                     BAUDCON         equ	4024	;# 
   179   000FB8                     BAUDCTL         equ	4024	;# 
   180   000FBA                     CCP2CON         equ	4026	;# 
   181   000FBB                     CCPR2           equ	4027	;# 
   182   000FBB                     CCPR2L          equ	4027	;# 
   183   000FBC                     CCPR2H          equ	4028	;# 
   184   000FBD                     CCP1CON         equ	4029	;# 
   185   000FBE                     CCPR1           equ	4030	;# 
   186   000FBE                     CCPR1L          equ	4030	;# 
   187   000FBF                     CCPR1H          equ	4031	;# 
   188   000FC0                     ADCON2          equ	4032	;# 
   189   000FC1                     ADCON1          equ	4033	;# 
   190   000FC2                     ADCON0          equ	4034	;# 
   191   000FC3                     ADRES           equ	4035	;# 
   192   000FC3                     ADRESL          equ	4035	;# 
   193   000FC4                     ADRESH          equ	4036	;# 
   194   000FC5                     SSPCON2         equ	4037	;# 
   195   000FC6                     SSPCON1         equ	4038	;# 
   196   000FC7                     SSPSTAT         equ	4039	;# 
   197   000FC8                     SSPADD          equ	4040	;# 
   198   000FC9                     SSPBUF          equ	4041	;# 
   199   000FCA                     T2CON           equ	4042	;# 
   200   000FCB                     PR2             equ	4043	;# 
   201   000FCB                     MEMCON          equ	4043	;# 
   202   000FCC                     TMR2            equ	4044	;# 
   203   000FCD                     T1CON           equ	4045	;# 
   204   000FCE                     TMR1            equ	4046	;# 
   205   000FCE                     TMR1L           equ	4046	;# 
   206   000FCF                     TMR1H           equ	4047	;# 
   207   000FD0                     RCON            equ	4048	;# 
   208   000FD1                     WDTCON          equ	4049	;# 
   209   000FD2                     HLVDCON         equ	4050	;# 
   210   000FD2                     LVDCON          equ	4050	;# 
   211   000FD3                     OSCCON          equ	4051	;# 
   212   000FD5                     T0CON           equ	4053	;# 
   213   000FD6                     TMR0            equ	4054	;# 
   214   000FD6                     TMR0L           equ	4054	;# 
   215   000FD7                     TMR0H           equ	4055	;# 
   216   000FD8                     STATUS          equ	4056	;# 
   217   000FD9                     FSR2            equ	4057	;# 
   218   000FD9                     FSR2L           equ	4057	;# 
   219   000FDA                     FSR2H           equ	4058	;# 
   220   000FDB                     PLUSW2          equ	4059	;# 
   221   000FDC                     PREINC2         equ	4060	;# 
   222   000FDD                     POSTDEC2        equ	4061	;# 
   223   000FDE                     POSTINC2        equ	4062	;# 
   224   000FDF                     INDF2           equ	4063	;# 
   225   000FE0                     BSR             equ	4064	;# 
   226   000FE1                     FSR1            equ	4065	;# 
   227   000FE1                     FSR1L           equ	4065	;# 
   228   000FE2                     FSR1H           equ	4066	;# 
   229   000FE3                     PLUSW1          equ	4067	;# 
   230   000FE4                     PREINC1         equ	4068	;# 
   231   000FE5                     POSTDEC1        equ	4069	;# 
   232   000FE6                     POSTINC1        equ	4070	;# 
   233   000FE7                     INDF1           equ	4071	;# 
   234   000FE8                     WREG            equ	4072	;# 
   235   000FE9                     FSR0            equ	4073	;# 
   236   000FE9                     FSR0L           equ	4073	;# 
   237   000FEA                     FSR0H           equ	4074	;# 
   238   000FEB                     PLUSW0          equ	4075	;# 
   239   000FEC                     PREINC0         equ	4076	;# 
   240   000FED                     POSTDEC0        equ	4077	;# 
   241   000FEE                     POSTINC0        equ	4078	;# 
   242   000FEF                     INDF0           equ	4079	;# 
   243   000FF0                     INTCON3         equ	4080	;# 
   244   000FF1                     INTCON2         equ	4081	;# 
   245   000FF2                     INTCON          equ	4082	;# 
   246   000FF3                     PROD            equ	4083	;# 
   247   000FF3                     PRODL           equ	4083	;# 
   248   000FF4                     PRODH           equ	4084	;# 
   249   000FF5                     TABLAT          equ	4085	;# 
   250   000FF6                     TBLPTR          equ	4086	;# 
   251   000FF6                     TBLPTRL         equ	4086	;# 
   252   000FF7                     TBLPTRH         equ	4087	;# 
   253   000FF8                     TBLPTRU         equ	4088	;# 
   254   000FF9                     PCLAT           equ	4089	;# 
   255   000FF9                     PC              equ	4089	;# 
   256   000FF9                     PCL             equ	4089	;# 
   257   000FFA                     PCLATH          equ	4090	;# 
   258   000FFB                     PCLATU          equ	4091	;# 
   259   000FFC                     STKPTR          equ	4092	;# 
   260   000FFD                     TOS             equ	4093	;# 
   261   000FFD                     TOSL            equ	4093	;# 
   262   000FFE                     TOSH            equ	4094	;# 
   263   000FFF                     TOSU            equ	4095	;# 
   264   000F80                     PORTA           equ	3968	;# 
   265   000F81                     PORTB           equ	3969	;# 
   266   000F82                     PORTC           equ	3970	;# 
   267   000F83                     PORTD           equ	3971	;# 
   268   000F84                     PORTE           equ	3972	;# 
   269   000F89                     LATA            equ	3977	;# 
   270   000F8A                     LATB            equ	3978	;# 
   271   000F8B                     LATC            equ	3979	;# 
   272   000F8C                     LATD            equ	3980	;# 
   273   000F8D                     LATE            equ	3981	;# 
   274   000F92                     TRISA           equ	3986	;# 
   275   000F92                     DDRA            equ	3986	;# 
   276   000F93                     TRISB           equ	3987	;# 
   277   000F93                     DDRB            equ	3987	;# 
   278   000F94                     TRISC           equ	3988	;# 
   279   000F94                     DDRC            equ	3988	;# 
   280   000F95                     TRISD           equ	3989	;# 
   281   000F95                     DDRD            equ	3989	;# 
   282   000F96                     TRISE           equ	3990	;# 
   283   000F96                     DDRE            equ	3990	;# 
   284   000F9B                     OSCTUNE         equ	3995	;# 
   285   000F9D                     PIE1            equ	3997	;# 
   286   000F9E                     PIR1            equ	3998	;# 
   287   000F9F                     IPR1            equ	3999	;# 
   288   000FA0                     PIE2            equ	4000	;# 
   289   000FA1                     PIR2            equ	4001	;# 
   290   000FA2                     IPR2            equ	4002	;# 
   291   000FA6                     EECON1          equ	4006	;# 
   292   000FA7                     EECON2          equ	4007	;# 
   293   000FA8                     EEDATA          equ	4008	;# 
   294   000FA9                     EEADR           equ	4009	;# 
   295   000FAB                     RCSTA           equ	4011	;# 
   296   000FAB                     RCSTA1          equ	4011	;# 
   297   000FAC                     TXSTA           equ	4012	;# 
   298   000FAC                     TXSTA1          equ	4012	;# 
   299   000FAD                     TXREG           equ	4013	;# 
   300   000FAD                     TXREG1          equ	4013	;# 
   301   000FAE                     RCREG           equ	4014	;# 
   302   000FAE                     RCREG1          equ	4014	;# 
   303   000FAF                     SPBRG           equ	4015	;# 
   304   000FAF                     SPBRG1          equ	4015	;# 
   305   000FB0                     SPBRGH          equ	4016	;# 
   306   000FB1                     T3CON           equ	4017	;# 
   307   000FB2                     TMR3            equ	4018	;# 
   308   000FB2                     TMR3L           equ	4018	;# 
   309   000FB3                     TMR3H           equ	4019	;# 
   310   000FB4                     CMCON           equ	4020	;# 
   311   000FB5                     CVRCON          equ	4021	;# 
   312   000FB6                     ECCP1AS         equ	4022	;# 
   313   000FB6                     ECCPAS          equ	4022	;# 
   314   000FB7                     PWM1CON         equ	4023	;# 
   315   000FB7                     ECCP1DEL        equ	4023	;# 
   316   000FB8                     BAUDCON         equ	4024	;# 
   317   000FB8                     BAUDCTL         equ	4024	;# 
   318   000FBA                     CCP2CON         equ	4026	;# 
   319   000FBB                     CCPR2           equ	4027	;# 
   320   000FBB                     CCPR2L          equ	4027	;# 
   321   000FBC                     CCPR2H          equ	4028	;# 
   322   000FBD                     CCP1CON         equ	4029	;# 
   323   000FBE                     CCPR1           equ	4030	;# 
   324   000FBE                     CCPR1L          equ	4030	;# 
   325   000FBF                     CCPR1H          equ	4031	;# 
   326   000FC0                     ADCON2          equ	4032	;# 
   327   000FC1                     ADCON1          equ	4033	;# 
   328   000FC2                     ADCON0          equ	4034	;# 
   329   000FC3                     ADRES           equ	4035	;# 
   330   000FC3                     ADRESL          equ	4035	;# 
   331   000FC4                     ADRESH          equ	4036	;# 
   332   000FC5                     SSPCON2         equ	4037	;# 
   333   000FC6                     SSPCON1         equ	4038	;# 
   334   000FC7                     SSPSTAT         equ	4039	;# 
   335   000FC8                     SSPADD          equ	4040	;# 
   336   000FC9                     SSPBUF          equ	4041	;# 
   337   000FCA                     T2CON           equ	4042	;# 
   338   000FCB                     PR2             equ	4043	;# 
   339   000FCB                     MEMCON          equ	4043	;# 
   340   000FCC                     TMR2            equ	4044	;# 
   341   000FCD                     T1CON           equ	4045	;# 
   342   000FCE                     TMR1            equ	4046	;# 
   343   000FCE                     TMR1L           equ	4046	;# 
   344   000FCF                     TMR1H           equ	4047	;# 
   345   000FD0                     RCON            equ	4048	;# 
   346   000FD1                     WDTCON          equ	4049	;# 
   347   000FD2                     HLVDCON         equ	4050	;# 
   348   000FD2                     LVDCON          equ	4050	;# 
   349   000FD3                     OSCCON          equ	4051	;# 
   350   000FD5                     T0CON           equ	4053	;# 
   351   000FD6                     TMR0            equ	4054	;# 
   352   000FD6                     TMR0L           equ	4054	;# 
   353   000FD7                     TMR0H           equ	4055	;# 
   354   000FD8                     STATUS          equ	4056	;# 
   355   000FD9                     FSR2            equ	4057	;# 
   356   000FD9                     FSR2L           equ	4057	;# 
   357   000FDA                     FSR2H           equ	4058	;# 
   358   000FDB                     PLUSW2          equ	4059	;# 
   359   000FDC                     PREINC2         equ	4060	;# 
   360   000FDD                     POSTDEC2        equ	4061	;# 
   361   000FDE                     POSTINC2        equ	4062	;# 
   362   000FDF                     INDF2           equ	4063	;# 
   363   000FE0                     BSR             equ	4064	;# 
   364   000FE1                     FSR1            equ	4065	;# 
   365   000FE1                     FSR1L           equ	4065	;# 
   366   000FE2                     FSR1H           equ	4066	;# 
   367   000FE3                     PLUSW1          equ	4067	;# 
   368   000FE4                     PREINC1         equ	4068	;# 
   369   000FE5                     POSTDEC1        equ	4069	;# 
   370   000FE6                     POSTINC1        equ	4070	;# 
   371   000FE7                     INDF1           equ	4071	;# 
   372   000FE8                     WREG            equ	4072	;# 
   373   000FE9                     FSR0            equ	4073	;# 
   374   000FE9                     FSR0L           equ	4073	;# 
   375   000FEA                     FSR0H           equ	4074	;# 
   376   000FEB                     PLUSW0          equ	4075	;# 
   377   000FEC                     PREINC0         equ	4076	;# 
   378   000FED                     POSTDEC0        equ	4077	;# 
   379   000FEE                     POSTINC0        equ	4078	;# 
   380   000FEF                     INDF0           equ	4079	;# 
   381   000FF0                     INTCON3         equ	4080	;# 
   382   000FF1                     INTCON2         equ	4081	;# 
   383   000FF2                     INTCON          equ	4082	;# 
   384   000FF3                     PROD            equ	4083	;# 
   385   000FF3                     PRODL           equ	4083	;# 
   386   000FF4                     PRODH           equ	4084	;# 
   387   000FF5                     TABLAT          equ	4085	;# 
   388   000FF6                     TBLPTR          equ	4086	;# 
   389   000FF6                     TBLPTRL         equ	4086	;# 
   390   000FF7                     TBLPTRH         equ	4087	;# 
   391   000FF8                     TBLPTRU         equ	4088	;# 
   392   000FF9                     PCLAT           equ	4089	;# 
   393   000FF9                     PC              equ	4089	;# 
   394   000FF9                     PCL             equ	4089	;# 
   395   000FFA                     PCLATH          equ	4090	;# 
   396   000FFB                     PCLATU          equ	4091	;# 
   397   000FFC                     STKPTR          equ	4092	;# 
   398   000FFD                     TOS             equ	4093	;# 
   399   000FFD                     TOSL            equ	4093	;# 
   400   000FFE                     TOSH            equ	4094	;# 
   401   000FFF                     TOSU            equ	4095	;# 
   402   000F80                     PORTA           equ	3968	;# 
   403   000F81                     PORTB           equ	3969	;# 
   404   000F82                     PORTC           equ	3970	;# 
   405   000F83                     PORTD           equ	3971	;# 
   406   000F84                     PORTE           equ	3972	;# 
   407   000F89                     LATA            equ	3977	;# 
   408   000F8A                     LATB            equ	3978	;# 
   409   000F8B                     LATC            equ	3979	;# 
   410   000F8C                     LATD            equ	3980	;# 
   411   000F8D                     LATE            equ	3981	;# 
   412   000F92                     TRISA           equ	3986	;# 
   413   000F92                     DDRA            equ	3986	;# 
   414   000F93                     TRISB           equ	3987	;# 
   415   000F93                     DDRB            equ	3987	;# 
   416   000F94                     TRISC           equ	3988	;# 
   417   000F94                     DDRC            equ	3988	;# 
   418   000F95                     TRISD           equ	3989	;# 
   419   000F95                     DDRD            equ	3989	;# 
   420   000F96                     TRISE           equ	3990	;# 
   421   000F96                     DDRE            equ	3990	;# 
   422   000F9B                     OSCTUNE         equ	3995	;# 
   423   000F9D                     PIE1            equ	3997	;# 
   424   000F9E                     PIR1            equ	3998	;# 
   425   000F9F                     IPR1            equ	3999	;# 
   426   000FA0                     PIE2            equ	4000	;# 
   427   000FA1                     PIR2            equ	4001	;# 
   428   000FA2                     IPR2            equ	4002	;# 
   429   000FA6                     EECON1          equ	4006	;# 
   430   000FA7                     EECON2          equ	4007	;# 
   431   000FA8                     EEDATA          equ	4008	;# 
   432   000FA9                     EEADR           equ	4009	;# 
   433   000FAB                     RCSTA           equ	4011	;# 
   434   000FAB                     RCSTA1          equ	4011	;# 
   435   000FAC                     TXSTA           equ	4012	;# 
   436   000FAC                     TXSTA1          equ	4012	;# 
   437   000FAD                     TXREG           equ	4013	;# 
   438   000FAD                     TXREG1          equ	4013	;# 
   439   000FAE                     RCREG           equ	4014	;# 
   440   000FAE                     RCREG1          equ	4014	;# 
   441   000FAF                     SPBRG           equ	4015	;# 
   442   000FAF                     SPBRG1          equ	4015	;# 
   443   000FB0                     SPBRGH          equ	4016	;# 
   444   000FB1                     T3CON           equ	4017	;# 
   445   000FB2                     TMR3            equ	4018	;# 
   446   000FB2                     TMR3L           equ	4018	;# 
   447   000FB3                     TMR3H           equ	4019	;# 
   448   000FB4                     CMCON           equ	4020	;# 
   449   000FB5                     CVRCON          equ	4021	;# 
   450   000FB6                     ECCP1AS         equ	4022	;# 
   451   000FB6                     ECCPAS          equ	4022	;# 
   452   000FB7                     PWM1CON         equ	4023	;# 
   453   000FB7                     ECCP1DEL        equ	4023	;# 
   454   000FB8                     BAUDCON         equ	4024	;# 
   455   000FB8                     BAUDCTL         equ	4024	;# 
   456   000FBA                     CCP2CON         equ	4026	;# 
   457   000FBB                     CCPR2           equ	4027	;# 
   458   000FBB                     CCPR2L          equ	4027	;# 
   459   000FBC                     CCPR2H          equ	4028	;# 
   460   000FBD                     CCP1CON         equ	4029	;# 
   461   000FBE                     CCPR1           equ	4030	;# 
   462   000FBE                     CCPR1L          equ	4030	;# 
   463   000FBF                     CCPR1H          equ	4031	;# 
   464   000FC0                     ADCON2          equ	4032	;# 
   465   000FC1                     ADCON1          equ	4033	;# 
   466   000FC2                     ADCON0          equ	4034	;# 
   467   000FC3                     ADRES           equ	4035	;# 
   468   000FC3                     ADRESL          equ	4035	;# 
   469   000FC4                     ADRESH          equ	4036	;# 
   470   000FC5                     SSPCON2         equ	4037	;# 
   471   000FC6                     SSPCON1         equ	4038	;# 
   472   000FC7                     SSPSTAT         equ	4039	;# 
   473   000FC8                     SSPADD          equ	4040	;# 
   474   000FC9                     SSPBUF          equ	4041	;# 
   475   000FCA                     T2CON           equ	4042	;# 
   476   000FCB                     PR2             equ	4043	;# 
   477   000FCB                     MEMCON          equ	4043	;# 
   478   000FCC                     TMR2            equ	4044	;# 
   479   000FCD                     T1CON           equ	4045	;# 
   480   000FCE                     TMR1            equ	4046	;# 
   481   000FCE                     TMR1L           equ	4046	;# 
   482   000FCF                     TMR1H           equ	4047	;# 
   483   000FD0                     RCON            equ	4048	;# 
   484   000FD1                     WDTCON          equ	4049	;# 
   485   000FD2                     HLVDCON         equ	4050	;# 
   486   000FD2                     LVDCON          equ	4050	;# 
   487   000FD3                     OSCCON          equ	4051	;# 
   488   000FD5                     T0CON           equ	4053	;# 
   489   000FD6                     TMR0            equ	4054	;# 
   490   000FD6                     TMR0L           equ	4054	;# 
   491   000FD7                     TMR0H           equ	4055	;# 
   492   000FD8                     STATUS          equ	4056	;# 
   493   000FD9                     FSR2            equ	4057	;# 
   494   000FD9                     FSR2L           equ	4057	;# 
   495   000FDA                     FSR2H           equ	4058	;# 
   496   000FDB                     PLUSW2          equ	4059	;# 
   497   000FDC                     PREINC2         equ	4060	;# 
   498   000FDD                     POSTDEC2        equ	4061	;# 
   499   000FDE                     POSTINC2        equ	4062	;# 
   500   000FDF                     INDF2           equ	4063	;# 
   501   000FE0                     BSR             equ	4064	;# 
   502   000FE1                     FSR1            equ	4065	;# 
   503   000FE1                     FSR1L           equ	4065	;# 
   504   000FE2                     FSR1H           equ	4066	;# 
   505   000FE3                     PLUSW1          equ	4067	;# 
   506   000FE4                     PREINC1         equ	4068	;# 
   507   000FE5                     POSTDEC1        equ	4069	;# 
   508   000FE6                     POSTINC1        equ	4070	;# 
   509   000FE7                     INDF1           equ	4071	;# 
   510   000FE8                     WREG            equ	4072	;# 
   511   000FE9                     FSR0            equ	4073	;# 
   512   000FE9                     FSR0L           equ	4073	;# 
   513   000FEA                     FSR0H           equ	4074	;# 
   514   000FEB                     PLUSW0          equ	4075	;# 
   515   000FEC                     PREINC0         equ	4076	;# 
   516   000FED                     POSTDEC0        equ	4077	;# 
   517   000FEE                     POSTINC0        equ	4078	;# 
   518   000FEF                     INDF0           equ	4079	;# 
   519   000FF0                     INTCON3         equ	4080	;# 
   520   000FF1                     INTCON2         equ	4081	;# 
   521   000FF2                     INTCON          equ	4082	;# 
   522   000FF3                     PROD            equ	4083	;# 
   523   000FF3                     PRODL           equ	4083	;# 
   524   000FF4                     PRODH           equ	4084	;# 
   525   000FF5                     TABLAT          equ	4085	;# 
   526   000FF6                     TBLPTR          equ	4086	;# 
   527   000FF6                     TBLPTRL         equ	4086	;# 
   528   000FF7                     TBLPTRH         equ	4087	;# 
   529   000FF8                     TBLPTRU         equ	4088	;# 
   530   000FF9                     PCLAT           equ	4089	;# 
   531   000FF9                     PC              equ	4089	;# 
   532   000FF9                     PCL             equ	4089	;# 
   533   000FFA                     PCLATH          equ	4090	;# 
   534   000FFB                     PCLATU          equ	4091	;# 
   535   000FFC                     STKPTR          equ	4092	;# 
   536   000FFD                     TOS             equ	4093	;# 
   537   000FFD                     TOSL            equ	4093	;# 
   538   000FFE                     TOSH            equ	4094	;# 
   539   000FFF                     TOSU            equ	4095	;# 
   540   000F80                     PORTA           equ	3968	;# 
   541   000F81                     PORTB           equ	3969	;# 
   542   000F82                     PORTC           equ	3970	;# 
   543   000F83                     PORTD           equ	3971	;# 
   544   000F84                     PORTE           equ	3972	;# 
   545   000F89                     LATA            equ	3977	;# 
   546   000F8A                     LATB            equ	3978	;# 
   547   000F8B                     LATC            equ	3979	;# 
   548   000F8C                     LATD            equ	3980	;# 
   549   000F8D                     LATE            equ	3981	;# 
   550   000F92                     TRISA           equ	3986	;# 
   551   000F92                     DDRA            equ	3986	;# 
   552   000F93                     TRISB           equ	3987	;# 
   553   000F93                     DDRB            equ	3987	;# 
   554   000F94                     TRISC           equ	3988	;# 
   555   000F94                     DDRC            equ	3988	;# 
   556   000F95                     TRISD           equ	3989	;# 
   557   000F95                     DDRD            equ	3989	;# 
   558   000F96                     TRISE           equ	3990	;# 
   559   000F96                     DDRE            equ	3990	;# 
   560   000F9B                     OSCTUNE         equ	3995	;# 
   561   000F9D                     PIE1            equ	3997	;# 
   562   000F9E                     PIR1            equ	3998	;# 
   563   000F9F                     IPR1            equ	3999	;# 
   564   000FA0                     PIE2            equ	4000	;# 
   565   000FA1                     PIR2            equ	4001	;# 
   566   000FA2                     IPR2            equ	4002	;# 
   567   000FA6                     EECON1          equ	4006	;# 
   568   000FA7                     EECON2          equ	4007	;# 
   569   000FA8                     EEDATA          equ	4008	;# 
   570   000FA9                     EEADR           equ	4009	;# 
   571   000FAB                     RCSTA           equ	4011	;# 
   572   000FAB                     RCSTA1          equ	4011	;# 
   573   000FAC                     TXSTA           equ	4012	;# 
   574   000FAC                     TXSTA1          equ	4012	;# 
   575   000FAD                     TXREG           equ	4013	;# 
   576   000FAD                     TXREG1          equ	4013	;# 
   577   000FAE                     RCREG           equ	4014	;# 
   578   000FAE                     RCREG1          equ	4014	;# 
   579   000FAF                     SPBRG           equ	4015	;# 
   580   000FAF                     SPBRG1          equ	4015	;# 
   581   000FB0                     SPBRGH          equ	4016	;# 
   582   000FB1                     T3CON           equ	4017	;# 
   583   000FB2                     TMR3            equ	4018	;# 
   584   000FB2                     TMR3L           equ	4018	;# 
   585   000FB3                     TMR3H           equ	4019	;# 
   586   000FB4                     CMCON           equ	4020	;# 
   587   000FB5                     CVRCON          equ	4021	;# 
   588   000FB6                     ECCP1AS         equ	4022	;# 
   589   000FB6                     ECCPAS          equ	4022	;# 
   590   000FB7                     PWM1CON         equ	4023	;# 
   591   000FB7                     ECCP1DEL        equ	4023	;# 
   592   000FB8                     BAUDCON         equ	4024	;# 
   593   000FB8                     BAUDCTL         equ	4024	;# 
   594   000FBA                     CCP2CON         equ	4026	;# 
   595   000FBB                     CCPR2           equ	4027	;# 
   596   000FBB                     CCPR2L          equ	4027	;# 
   597   000FBC                     CCPR2H          equ	4028	;# 
   598   000FBD                     CCP1CON         equ	4029	;# 
   599   000FBE                     CCPR1           equ	4030	;# 
   600   000FBE                     CCPR1L          equ	4030	;# 
   601   000FBF                     CCPR1H          equ	4031	;# 
   602   000FC0                     ADCON2          equ	4032	;# 
   603   000FC1                     ADCON1          equ	4033	;# 
   604   000FC2                     ADCON0          equ	4034	;# 
   605   000FC3                     ADRES           equ	4035	;# 
   606   000FC3                     ADRESL          equ	4035	;# 
   607   000FC4                     ADRESH          equ	4036	;# 
   608   000FC5                     SSPCON2         equ	4037	;# 
   609   000FC6                     SSPCON1         equ	4038	;# 
   610   000FC7                     SSPSTAT         equ	4039	;# 
   611   000FC8                     SSPADD          equ	4040	;# 
   612   000FC9                     SSPBUF          equ	4041	;# 
   613   000FCA                     T2CON           equ	4042	;# 
   614   000FCB                     PR2             equ	4043	;# 
   615   000FCB                     MEMCON          equ	4043	;# 
   616   000FCC                     TMR2            equ	4044	;# 
   617   000FCD                     T1CON           equ	4045	;# 
   618   000FCE                     TMR1            equ	4046	;# 
   619   000FCE                     TMR1L           equ	4046	;# 
   620   000FCF                     TMR1H           equ	4047	;# 
   621   000FD0                     RCON            equ	4048	;# 
   622   000FD1                     WDTCON          equ	4049	;# 
   623   000FD2                     HLVDCON         equ	4050	;# 
   624   000FD2                     LVDCON          equ	4050	;# 
   625   000FD3                     OSCCON          equ	4051	;# 
   626   000FD5                     T0CON           equ	4053	;# 
   627   000FD6                     TMR0            equ	4054	;# 
   628   000FD6                     TMR0L           equ	4054	;# 
   629   000FD7                     TMR0H           equ	4055	;# 
   630   000FD8                     STATUS          equ	4056	;# 
   631   000FD9                     FSR2            equ	4057	;# 
   632   000FD9                     FSR2L           equ	4057	;# 
   633   000FDA                     FSR2H           equ	4058	;# 
   634   000FDB                     PLUSW2          equ	4059	;# 
   635   000FDC                     PREINC2         equ	4060	;# 
   636   000FDD                     POSTDEC2        equ	4061	;# 
   637   000FDE                     POSTINC2        equ	4062	;# 
   638   000FDF                     INDF2           equ	4063	;# 
   639   000FE0                     BSR             equ	4064	;# 
   640   000FE1                     FSR1            equ	4065	;# 
   641   000FE1                     FSR1L           equ	4065	;# 
   642   000FE2                     FSR1H           equ	4066	;# 
   643   000FE3                     PLUSW1          equ	4067	;# 
   644   000FE4                     PREINC1         equ	4068	;# 
   645   000FE5                     POSTDEC1        equ	4069	;# 
   646   000FE6                     POSTINC1        equ	4070	;# 
   647   000FE7                     INDF1           equ	4071	;# 
   648   000FE8                     WREG            equ	4072	;# 
   649   000FE9                     FSR0            equ	4073	;# 
   650   000FE9                     FSR0L           equ	4073	;# 
   651   000FEA                     FSR0H           equ	4074	;# 
   652   000FEB                     PLUSW0          equ	4075	;# 
   653   000FEC                     PREINC0         equ	4076	;# 
   654   000FED                     POSTDEC0        equ	4077	;# 
   655   000FEE                     POSTINC0        equ	4078	;# 
   656   000FEF                     INDF0           equ	4079	;# 
   657   000FF0                     INTCON3         equ	4080	;# 
   658   000FF1                     INTCON2         equ	4081	;# 
   659   000FF2                     INTCON          equ	4082	;# 
   660   000FF3                     PROD            equ	4083	;# 
   661   000FF3                     PRODL           equ	4083	;# 
   662   000FF4                     PRODH           equ	4084	;# 
   663   000FF5                     TABLAT          equ	4085	;# 
   664   000FF6                     TBLPTR          equ	4086	;# 
   665   000FF6                     TBLPTRL         equ	4086	;# 
   666   000FF7                     TBLPTRH         equ	4087	;# 
   667   000FF8                     TBLPTRU         equ	4088	;# 
   668   000FF9                     PCLAT           equ	4089	;# 
   669   000FF9                     PC              equ	4089	;# 
   670   000FF9                     PCL             equ	4089	;# 
   671   000FFA                     PCLATH          equ	4090	;# 
   672   000FFB                     PCLATU          equ	4091	;# 
   673   000FFC                     STKPTR          equ	4092	;# 
   674   000FFD                     TOS             equ	4093	;# 
   675   000FFD                     TOSL            equ	4093	;# 
   676   000FFE                     TOSH            equ	4094	;# 
   677   000FFF                     TOSU            equ	4095	;# 
   678   000F80                     PORTA           equ	3968	;# 
   679   000F81                     PORTB           equ	3969	;# 
   680   000F82                     PORTC           equ	3970	;# 
   681   000F83                     PORTD           equ	3971	;# 
   682   000F84                     PORTE           equ	3972	;# 
   683   000F89                     LATA            equ	3977	;# 
   684   000F8A                     LATB            equ	3978	;# 
   685   000F8B                     LATC            equ	3979	;# 
   686   000F8C                     LATD            equ	3980	;# 
   687   000F8D                     LATE            equ	3981	;# 
   688   000F92                     TRISA           equ	3986	;# 
   689   000F92                     DDRA            equ	3986	;# 
   690   000F93                     TRISB           equ	3987	;# 
   691   000F93                     DDRB            equ	3987	;# 
   692   000F94                     TRISC           equ	3988	;# 
   693   000F94                     DDRC            equ	3988	;# 
   694   000F95                     TRISD           equ	3989	;# 
   695   000F95                     DDRD            equ	3989	;# 
   696   000F96                     TRISE           equ	3990	;# 
   697   000F96                     DDRE            equ	3990	;# 
   698   000F9B                     OSCTUNE         equ	3995	;# 
   699   000F9D                     PIE1            equ	3997	;# 
   700   000F9E                     PIR1            equ	3998	;# 
   701   000F9F                     IPR1            equ	3999	;# 
   702   000FA0                     PIE2            equ	4000	;# 
   703   000FA1                     PIR2            equ	4001	;# 
   704   000FA2                     IPR2            equ	4002	;# 
   705   000FA6                     EECON1          equ	4006	;# 
   706   000FA7                     EECON2          equ	4007	;# 
   707   000FA8                     EEDATA          equ	4008	;# 
   708   000FA9                     EEADR           equ	4009	;# 
   709   000FAB                     RCSTA           equ	4011	;# 
   710   000FAB                     RCSTA1          equ	4011	;# 
   711   000FAC                     TXSTA           equ	4012	;# 
   712   000FAC                     TXSTA1          equ	4012	;# 
   713   000FAD                     TXREG           equ	4013	;# 
   714   000FAD                     TXREG1          equ	4013	;# 
   715   000FAE                     RCREG           equ	4014	;# 
   716   000FAE                     RCREG1          equ	4014	;# 
   717   000FAF                     SPBRG           equ	4015	;# 
   718   000FAF                     SPBRG1          equ	4015	;# 
   719   000FB0                     SPBRGH          equ	4016	;# 
   720   000FB1                     T3CON           equ	4017	;# 
   721   000FB2                     TMR3            equ	4018	;# 
   722   000FB2                     TMR3L           equ	4018	;# 
   723   000FB3                     TMR3H           equ	4019	;# 
   724   000FB4                     CMCON           equ	4020	;# 
   725   000FB5                     CVRCON          equ	4021	;# 
   726   000FB6                     ECCP1AS         equ	4022	;# 
   727   000FB6                     ECCPAS          equ	4022	;# 
   728   000FB7                     PWM1CON         equ	4023	;# 
   729   000FB7                     ECCP1DEL        equ	4023	;# 
   730   000FB8                     BAUDCON         equ	4024	;# 
   731   000FB8                     BAUDCTL         equ	4024	;# 
   732   000FBA                     CCP2CON         equ	4026	;# 
   733   000FBB                     CCPR2           equ	4027	;# 
   734   000FBB                     CCPR2L          equ	4027	;# 
   735   000FBC                     CCPR2H          equ	4028	;# 
   736   000FBD                     CCP1CON         equ	4029	;# 
   737   000FBE                     CCPR1           equ	4030	;# 
   738   000FBE                     CCPR1L          equ	4030	;# 
   739   000FBF                     CCPR1H          equ	4031	;# 
   740   000FC0                     ADCON2          equ	4032	;# 
   741   000FC1                     ADCON1          equ	4033	;# 
   742   000FC2                     ADCON0          equ	4034	;# 
   743   000FC3                     ADRES           equ	4035	;# 
   744   000FC3                     ADRESL          equ	4035	;# 
   745   000FC4                     ADRESH          equ	4036	;# 
   746   000FC5                     SSPCON2         equ	4037	;# 
   747   000FC6                     SSPCON1         equ	4038	;# 
   748   000FC7                     SSPSTAT         equ	4039	;# 
   749   000FC8                     SSPADD          equ	4040	;# 
   750   000FC9                     SSPBUF          equ	4041	;# 
   751   000FCA                     T2CON           equ	4042	;# 
   752   000FCB                     PR2             equ	4043	;# 
   753   000FCB                     MEMCON          equ	4043	;# 
   754   000FCC                     TMR2            equ	4044	;# 
   755   000FCD                     T1CON           equ	4045	;# 
   756   000FCE                     TMR1            equ	4046	;# 
   757   000FCE                     TMR1L           equ	4046	;# 
   758   000FCF                     TMR1H           equ	4047	;# 
   759   000FD0                     RCON            equ	4048	;# 
   760   000FD1                     WDTCON          equ	4049	;# 
   761   000FD2                     HLVDCON         equ	4050	;# 
   762   000FD2                     LVDCON          equ	4050	;# 
   763   000FD3                     OSCCON          equ	4051	;# 
   764   000FD5                     T0CON           equ	4053	;# 
   765   000FD6                     TMR0            equ	4054	;# 
   766   000FD6                     TMR0L           equ	4054	;# 
   767   000FD7                     TMR0H           equ	4055	;# 
   768   000FD8                     STATUS          equ	4056	;# 
   769   000FD9                     FSR2            equ	4057	;# 
   770   000FD9                     FSR2L           equ	4057	;# 
   771   000FDA                     FSR2H           equ	4058	;# 
   772   000FDB                     PLUSW2          equ	4059	;# 
   773   000FDC                     PREINC2         equ	4060	;# 
   774   000FDD                     POSTDEC2        equ	4061	;# 
   775   000FDE                     POSTINC2        equ	4062	;# 
   776   000FDF                     INDF2           equ	4063	;# 
   777   000FE0                     BSR             equ	4064	;# 
   778   000FE1                     FSR1            equ	4065	;# 
   779   000FE1                     FSR1L           equ	4065	;# 
   780   000FE2                     FSR1H           equ	4066	;# 
   781   000FE3                     PLUSW1          equ	4067	;# 
   782   000FE4                     PREINC1         equ	4068	;# 
   783   000FE5                     POSTDEC1        equ	4069	;# 
   784   000FE6                     POSTINC1        equ	4070	;# 
   785   000FE7                     INDF1           equ	4071	;# 
   786   000FE8                     WREG            equ	4072	;# 
   787   000FE9                     FSR0            equ	4073	;# 
   788   000FE9                     FSR0L           equ	4073	;# 
   789   000FEA                     FSR0H           equ	4074	;# 
   790   000FEB                     PLUSW0          equ	4075	;# 
   791   000FEC                     PREINC0         equ	4076	;# 
   792   000FED                     POSTDEC0        equ	4077	;# 
   793   000FEE                     POSTINC0        equ	4078	;# 
   794   000FEF                     INDF0           equ	4079	;# 
   795   000FF0                     INTCON3         equ	4080	;# 
   796   000FF1                     INTCON2         equ	4081	;# 
   797   000FF2                     INTCON          equ	4082	;# 
   798   000FF3                     PROD            equ	4083	;# 
   799   000FF3                     PRODL           equ	4083	;# 
   800   000FF4                     PRODH           equ	4084	;# 
   801   000FF5                     TABLAT          equ	4085	;# 
   802   000FF6                     TBLPTR          equ	4086	;# 
   803   000FF6                     TBLPTRL         equ	4086	;# 
   804   000FF7                     TBLPTRH         equ	4087	;# 
   805   000FF8                     TBLPTRU         equ	4088	;# 
   806   000FF9                     PCLAT           equ	4089	;# 
   807   000FF9                     PC              equ	4089	;# 
   808   000FF9                     PCL             equ	4089	;# 
   809   000FFA                     PCLATH          equ	4090	;# 
   810   000FFB                     PCLATU          equ	4091	;# 
   811   000FFC                     STKPTR          equ	4092	;# 
   812   000FFD                     TOS             equ	4093	;# 
   813   000FFD                     TOSL            equ	4093	;# 
   814   000FFE                     TOSH            equ	4094	;# 
   815   000FFF                     TOSU            equ	4095	;# 
   816   000F80                     PORTA           equ	3968	;# 
   817   000F81                     PORTB           equ	3969	;# 
   818   000F82                     PORTC           equ	3970	;# 
   819   000F83                     PORTD           equ	3971	;# 
   820   000F84                     PORTE           equ	3972	;# 
   821   000F89                     LATA            equ	3977	;# 
   822   000F8A                     LATB            equ	3978	;# 
   823   000F8B                     LATC            equ	3979	;# 
   824   000F8C                     LATD            equ	3980	;# 
   825   000F8D                     LATE            equ	3981	;# 
   826   000F92                     TRISA           equ	3986	;# 
   827   000F92                     DDRA            equ	3986	;# 
   828   000F93                     TRISB           equ	3987	;# 
   829   000F93                     DDRB            equ	3987	;# 
   830   000F94                     TRISC           equ	3988	;# 
   831   000F94                     DDRC            equ	3988	;# 
   832   000F95                     TRISD           equ	3989	;# 
   833   000F95                     DDRD            equ	3989	;# 
   834   000F96                     TRISE           equ	3990	;# 
   835   000F96                     DDRE            equ	3990	;# 
   836   000F9B                     OSCTUNE         equ	3995	;# 
   837   000F9D                     PIE1            equ	3997	;# 
   838   000F9E                     PIR1            equ	3998	;# 
   839   000F9F                     IPR1            equ	3999	;# 
   840   000FA0                     PIE2            equ	4000	;# 
   841   000FA1                     PIR2            equ	4001	;# 
   842   000FA2                     IPR2            equ	4002	;# 
   843   000FA6                     EECON1          equ	4006	;# 
   844   000FA7                     EECON2          equ	4007	;# 
   845   000FA8                     EEDATA          equ	4008	;# 
   846   000FA9                     EEADR           equ	4009	;# 
   847   000FAB                     RCSTA           equ	4011	;# 
   848   000FAB                     RCSTA1          equ	4011	;# 
   849   000FAC                     TXSTA           equ	4012	;# 
   850   000FAC                     TXSTA1          equ	4012	;# 
   851   000FAD                     TXREG           equ	4013	;# 
   852   000FAD                     TXREG1          equ	4013	;# 
   853   000FAE                     RCREG           equ	4014	;# 
   854   000FAE                     RCREG1          equ	4014	;# 
   855   000FAF                     SPBRG           equ	4015	;# 
   856   000FAF                     SPBRG1          equ	4015	;# 
   857   000FB0                     SPBRGH          equ	4016	;# 
   858   000FB1                     T3CON           equ	4017	;# 
   859   000FB2                     TMR3            equ	4018	;# 
   860   000FB2                     TMR3L           equ	4018	;# 
   861   000FB3                     TMR3H           equ	4019	;# 
   862   000FB4                     CMCON           equ	4020	;# 
   863   000FB5                     CVRCON          equ	4021	;# 
   864   000FB6                     ECCP1AS         equ	4022	;# 
   865   000FB6                     ECCPAS          equ	4022	;# 
   866   000FB7                     PWM1CON         equ	4023	;# 
   867   000FB7                     ECCP1DEL        equ	4023	;# 
   868   000FB8                     BAUDCON         equ	4024	;# 
   869   000FB8                     BAUDCTL         equ	4024	;# 
   870   000FBA                     CCP2CON         equ	4026	;# 
   871   000FBB                     CCPR2           equ	4027	;# 
   872   000FBB                     CCPR2L          equ	4027	;# 
   873   000FBC                     CCPR2H          equ	4028	;# 
   874   000FBD                     CCP1CON         equ	4029	;# 
   875   000FBE                     CCPR1           equ	4030	;# 
   876   000FBE                     CCPR1L          equ	4030	;# 
   877   000FBF                     CCPR1H          equ	4031	;# 
   878   000FC0                     ADCON2          equ	4032	;# 
   879   000FC1                     ADCON1          equ	4033	;# 
   880   000FC2                     ADCON0          equ	4034	;# 
   881   000FC3                     ADRES           equ	4035	;# 
   882   000FC3                     ADRESL          equ	4035	;# 
   883   000FC4                     ADRESH          equ	4036	;# 
   884   000FC5                     SSPCON2         equ	4037	;# 
   885   000FC6                     SSPCON1         equ	4038	;# 
   886   000FC7                     SSPSTAT         equ	4039	;# 
   887   000FC8                     SSPADD          equ	4040	;# 
   888   000FC9                     SSPBUF          equ	4041	;# 
   889   000FCA                     T2CON           equ	4042	;# 
   890   000FCB                     PR2             equ	4043	;# 
   891   000FCB                     MEMCON          equ	4043	;# 
   892   000FCC                     TMR2            equ	4044	;# 
   893   000FCD                     T1CON           equ	4045	;# 
   894   000FCE                     TMR1            equ	4046	;# 
   895   000FCE                     TMR1L           equ	4046	;# 
   896   000FCF                     TMR1H           equ	4047	;# 
   897   000FD0                     RCON            equ	4048	;# 
   898   000FD1                     WDTCON          equ	4049	;# 
   899   000FD2                     HLVDCON         equ	4050	;# 
   900   000FD2                     LVDCON          equ	4050	;# 
   901   000FD3                     OSCCON          equ	4051	;# 
   902   000FD5                     T0CON           equ	4053	;# 
   903   000FD6                     TMR0            equ	4054	;# 
   904   000FD6                     TMR0L           equ	4054	;# 
   905   000FD7                     TMR0H           equ	4055	;# 
   906   000FD8                     STATUS          equ	4056	;# 
   907   000FD9                     FSR2            equ	4057	;# 
   908   000FD9                     FSR2L           equ	4057	;# 
   909   000FDA                     FSR2H           equ	4058	;# 
   910   000FDB                     PLUSW2          equ	4059	;# 
   911   000FDC                     PREINC2         equ	4060	;# 
   912   000FDD                     POSTDEC2        equ	4061	;# 
   913   000FDE                     POSTINC2        equ	4062	;# 
   914   000FDF                     INDF2           equ	4063	;# 
   915   000FE0                     BSR             equ	4064	;# 
   916   000FE1                     FSR1            equ	4065	;# 
   917   000FE1                     FSR1L           equ	4065	;# 
   918   000FE2                     FSR1H           equ	4066	;# 
   919   000FE3                     PLUSW1          equ	4067	;# 
   920   000FE4                     PREINC1         equ	4068	;# 
   921   000FE5                     POSTDEC1        equ	4069	;# 
   922   000FE6                     POSTINC1        equ	4070	;# 
   923   000FE7                     INDF1           equ	4071	;# 
   924   000FE8                     WREG            equ	4072	;# 
   925   000FE9                     FSR0            equ	4073	;# 
   926   000FE9                     FSR0L           equ	4073	;# 
   927   000FEA                     FSR0H           equ	4074	;# 
   928   000FEB                     PLUSW0          equ	4075	;# 
   929   000FEC                     PREINC0         equ	4076	;# 
   930   000FED                     POSTDEC0        equ	4077	;# 
   931   000FEE                     POSTINC0        equ	4078	;# 
   932   000FEF                     INDF0           equ	4079	;# 
   933   000FF0                     INTCON3         equ	4080	;# 
   934   000FF1                     INTCON2         equ	4081	;# 
   935   000FF2                     INTCON          equ	4082	;# 
   936   000FF3                     PROD            equ	4083	;# 
   937   000FF3                     PRODL           equ	4083	;# 
   938   000FF4                     PRODH           equ	4084	;# 
   939   000FF5                     TABLAT          equ	4085	;# 
   940   000FF6                     TBLPTR          equ	4086	;# 
   941   000FF6                     TBLPTRL         equ	4086	;# 
   942   000FF7                     TBLPTRH         equ	4087	;# 
   943   000FF8                     TBLPTRU         equ	4088	;# 
   944   000FF9                     PCLAT           equ	4089	;# 
   945   000FF9                     PC              equ	4089	;# 
   946   000FF9                     PCL             equ	4089	;# 
   947   000FFA                     PCLATH          equ	4090	;# 
   948   000FFB                     PCLATU          equ	4091	;# 
   949   000FFC                     STKPTR          equ	4092	;# 
   950   000FFD                     TOS             equ	4093	;# 
   951   000FFD                     TOSL            equ	4093	;# 
   952   000FFE                     TOSH            equ	4094	;# 
   953   000FFF                     TOSU            equ	4095	;# 
   954                           
   955                           	psect	idataCOMRAM
   956   000E06                     __pidataCOMRAM:
   957                           	callstack 0
   958                           
   959                           ;initializer for _Kdy
   960   000E06  0000               	dw	0
   961   000E08  3F40               	dw	16192
   962                           
   963                           ;initializer for _Kiy
   964   000E0A  BE62               	dw	48738
   965   000E0C  383C               	dw	14396
   966                           
   967                           ;initializer for _Kpy
   968   000E0E  CCCD               	dw	52429
   969   000E10  3F4C               	dw	16204
   970                           
   971                           ;initializer for _Kdx
   972   000E12  0000               	dw	0
   973   000E14  3F40               	dw	16192
   974                           
   975                           ;initializer for _Kix
   976   000E16  BE62               	dw	48738
   977   000E18  383C               	dw	14396
   978                           
   979                           ;initializer for _Kpx
   980   000E1A  CCCD               	dw	52429
   981   000E1C  3F4C               	dw	16204
   982   007D5C                     _CREN           set	32092
   983   007CF5                     _RCIF           set	31989
   984   007E9C                     _IRCF0          set	32412
   985   007E9D                     _IRCF1          set	32413
   986   007E9E                     _IRCF2          set	32414
   987   000FAE                     _RCREG          set	4014
   988   000FAD                     _TXREG          set	4013
   989   000FAB                     _RCSTAbits      set	4011
   990   000FAF                     _SPBRG          set	4015
   991   000FB8                     _BAUDCONbits    set	4024
   992   000FAC                     _TXSTAbits      set	4012
   993   000FCE                     _TMR1L          set	4046
   994   000FCF                     _TMR1H          set	4047
   995   000FCD                     _T1CONbits      set	4045
   996   000FCB                     _PR2            set	4043
   997   000FCA                     _T2CONbits      set	4042
   998   000FF2                     _INTCONbits     set	4082
   999   000FD0                     _RCONbits       set	4048
  1000   000FBA                     _CCP2CON        set	4026
  1001   000F9F                     _IPR1bits       set	3999
  1002   000FBD                     _CCP1CON        set	4029
  1003   000F94                     _TRISCbits      set	3988
  1004   000F9D                     _PIE1bits       set	3997
  1005   000FC0                     _ADCON2bits     set	4032
  1006   000F9E                     _PIR1bits       set	3998
  1007   000FC3                     _ADRESL         set	4035
  1008   000FC4                     _ADRESH         set	4036
  1009   000F8A                     _LATBbits       set	3978
  1010   000F93                     _TRISBbits      set	3987
  1011   000FC2                     _ADCON0bits     set	4034
  1012   000FC1                     _ADCON1bits     set	4033
  1013   000F89                     _LATAbits       set	3977
  1014   000F92                     _TRISAbits      set	3986
  1015   000FBA                     _CCP2CONbits    set	4026
  1016   000FBB                     _CCPR2L         set	4027
  1017   000FBD                     _CCP1CONbits    set	4029
  1018   000FBE                     _CCPR1L         set	4030
  1019                           
  1020                           	psect	smallconst
  1021   000600                     __psmallconst:
  1022                           	callstack 0
  1023   000600  00                 	db	0
  1024   000601                     STR_1:
  1025   000601  25                 	db	37
  1026   000602  64                 	db	100	;'d'
  1027   000603  00                 	db	0
  1028   000604                     STR_3:
  1029   000604  0A                 	db	10
  1030   000605  00                 	db	0
  1031   000601                     STR_2           equ	STR_1
  1032   000606  00                 	db	0	; dummy byte at the end
  1033   000600                     __smallconst    set	__psmallconst
  1034   000600                     __mediumconst   set	__psmallconst
  1035   000002                     __activetblptr  equ	2
  1036                           
  1037                           ; #config settings
  1038                           
  1039                           	psect	cinit
  1040   000B8C                     __pcinit:
  1041                           	callstack 0
  1042   000B8C                     start_initialization:
  1043                           	callstack 0
  1044   000B8C                     __initialization:
  1045                           	callstack 0
  1046                           
  1047                           ; Initialize objects allocated to COMRAM (24 bytes)
  1048                           ; load TBLPTR registers with __pidataCOMRAM
  1049   000B8C  0E06               	movlw	low __pidataCOMRAM
  1050   000B8E  6EF6               	movwf	tblptrl,c
  1051   000B90  0E0E               	movlw	high __pidataCOMRAM
  1052   000B92  6EF7               	movwf	tblptrh,c
  1053   000B94  0E00               	movlw	low (__pidataCOMRAM shr (0+16))
  1054   000B96  6EF8               	movwf	tblptru,c
  1055   000B98  EE00  F05F         	lfsr	0,__pdataCOMRAM
  1056   000B9C  EE10 F018          	lfsr	1,24
  1057   000BA0                     copy_data0:
  1058   000BA0  0009               	tblrd		*+
  1059   000BA2  CFF5 FFEE          	movff	tablat,postinc0
  1060   000BA6  50E5               	movf	postdec1,w,c
  1061   000BA8  50E1               	movf	fsr1l,w,c
  1062   000BAA  E1FA               	bnz	copy_data0
  1063                           
  1064                           ; Clear objects allocated to BANK0 (104 bytes)
  1065   000BAC  EE00  F080         	lfsr	0,__pbssBANK0
  1066   000BB0  0E68               	movlw	104
  1067   000BB2                     clear_0:
  1068   000BB2  6AEE               	clrf	postinc0,c
  1069   000BB4  06E8               	decf	wreg,f,c
  1070   000BB6  E1FD               	bnz	clear_0
  1071                           
  1072                           ; Clear objects allocated to COMRAM (29 bytes)
  1073   000BB8  EE00  F042         	lfsr	0,__pbssCOMRAM
  1074   000BBC  0E1D               	movlw	29
  1075   000BBE                     clear_1:
  1076   000BBE  6AEE               	clrf	postinc0,c
  1077   000BC0  06E8               	decf	wreg,f,c
  1078   000BC2  E1FD               	bnz	clear_1
  1079   000BC4                     end_of_initialization:
  1080                           	callstack 0
  1081   000BC4                     __end_of__initialization:
  1082                           	callstack 0
  1083   000BC4  9077               	bcf	int$flags,0,c	;clear compiler interrupt flag (level 1)
  1084   000BC6  9277               	bcf	int$flags,1,c	;clear compiler interrupt flag (level 2)
  1085   000BC8  0E00               	movlw	low (__Lmediumconst shr (0+16))
  1086   000BCA  6EF8               	movwf	tblptru,c
  1087   000BCC  0100               	movlb	0
  1088   000BCE  EF0C  F006         	goto	_main	;jump to C main() function
  1089                           
  1090                           	psect	bssCOMRAM
  1091   000042                     __pbssCOMRAM:
  1092                           	callstack 0
  1093   000042                     _lastErrory:
  1094                           	callstack 0
  1095   000042                     	ds	4
  1096   000046                     _lastErrorx:
  1097                           	callstack 0
  1098   000046                     	ds	4
  1099   00004A                     _integraly:
  1100                           	callstack 0
  1101   00004A                     	ds	4
  1102   00004E                     _integralx:
  1103                           	callstack 0
  1104   00004E                     	ds	4
  1105   000052                     _width:
  1106                           	callstack 0
  1107   000052                     	ds	2
  1108   000054                     _prec:
  1109                           	callstack 0
  1110   000054                     	ds	2
  1111   000056                     _stringReady:
  1112                           	callstack 0
  1113   000056                     	ds	2
  1114   000058                     _lenStr:
  1115                           	callstack 0
  1116   000058                     	ds	2
  1117   00005A                     _axis:
  1118                           	callstack 0
  1119   00005A                     	ds	2
  1120   00005C                     _lastRead:
  1121                           	callstack 0
  1122   00005C                     	ds	2
  1123   00005E                     _flags:
  1124                           	callstack 0
  1125   00005E                     	ds	1
  1126                           
  1127                           	psect	dataCOMRAM
  1128   00005F                     __pdataCOMRAM:
  1129                           	callstack 0
  1130   00005F                     _Kdy:
  1131                           	callstack 0
  1132   00005F                     	ds	4
  1133   000063                     _Kiy:
  1134                           	callstack 0
  1135   000063                     	ds	4
  1136   000067                     _Kpy:
  1137                           	callstack 0
  1138   000067                     	ds	4
  1139   00006B                     _Kdx:
  1140                           	callstack 0
  1141   00006B                     	ds	4
  1142   00006F                     _Kix:
  1143                           	callstack 0
  1144   00006F                     	ds	4
  1145   000073                     _Kpx:
  1146                           	callstack 0
  1147   000073                     	ds	4
  1148                           
  1149                           	psect	bssBANK0
  1150   000080                     __pbssBANK0:
  1151                           	callstack 0
  1152   000080                     _dbuf:
  1153                           	callstack 0
  1154   000080                     	ds	32
  1155   0000A0                     _str:
  1156                           	callstack 0
  1157   0000A0                     	ds	20
  1158   0000B4                     _errory:
  1159                           	callstack 0
  1160   0000B4                     	ds	8
  1161   0000BC                     _errorx:
  1162                           	callstack 0
  1163   0000BC                     	ds	8
  1164   0000C4                     _yFiltered:
  1165                           	callstack 0
  1166   0000C4                     	ds	8
  1167   0000CC                     _xFiltered:
  1168                           	callstack 0
  1169   0000CC                     	ds	8
  1170   0000D4                     _mystring:
  1171                           	callstack 0
  1172   0000D4                     	ds	20
  1173                           
  1174                           	psect	cstackBANK1
  1175   000100                     __pcstackBANK1:
  1176                           	callstack 0
  1177   000100                     ??_Lo_ISR:
  1178                           
  1179                           ; 1 bytes @ 0x0
  1180   000100                     	ds	5
  1181                           
  1182                           	psect	cstackBANK0
  1183   0000E8                     __pcstackBANK0:
  1184                           	callstack 0
  1185   0000E8                     ??_Hi_ISR:
  1186                           
  1187                           ; 1 bytes @ 0x0
  1188   0000E8                     	ds	10
  1189   0000F2                     UART_Write@data:
  1190                           	callstack 0
  1191   0000F2                     
  1192                           ; 1 bytes @ 0xA
  1193   0000F2                     	ds	1
  1194   0000F3                     MyusartRead@ch:
  1195                           	callstack 0
  1196   0000F3                     
  1197                           ; 1 bytes @ 0xB
  1198   0000F3                     	ds	1
  1199   0000F4                     
  1200                           ; 1 bytes @ 0xC
  1201                           
  1202                           	psect	cstackCOMRAM
  1203   000001                     __pcstackCOMRAM:
  1204                           	callstack 0
  1205   000001                     ?___awdiv:
  1206                           	callstack 0
  1207   000001                     ?___awmod:
  1208                           	callstack 0
  1209   000001                     i2UART_Write@data:
  1210                           	callstack 0
  1211   000001                     ___awdiv@dividend:
  1212                           	callstack 0
  1213   000001                     ___awmod@dividend:
  1214                           	callstack 0
  1215   000001                     fputc@c:
  1216                           	callstack 0
  1217   000001                     
  1218                           ; 1 bytes @ 0x0
  1219   000001                     	ds	1
  1220   000002                     UART_Write_Text@text:
  1221                           	callstack 0
  1222                           
  1223                           ; 2 bytes @ 0x1
  1224   000002                     	ds	1
  1225   000003                     fputc@fp:
  1226                           	callstack 0
  1227   000003                     ___awdiv@divisor:
  1228                           	callstack 0
  1229   000003                     ___awmod@divisor:
  1230                           	callstack 0
  1231                           
  1232                           ; 2 bytes @ 0x2
  1233   000003                     	ds	1
  1234   000004                     ??_UART_Write_Text:
  1235   000004                     ??_fputc:
  1236                           
  1237                           ; 1 bytes @ 0x3
  1238   000004                     	ds	1
  1239   000005                     ___awdiv@counter:
  1240                           	callstack 0
  1241   000005                     ___awmod@counter:
  1242                           	callstack 0
  1243   000005                     
  1244                           ; 1 bytes @ 0x4
  1245   000005                     	ds	1
  1246   000006                     ___awdiv@sign:
  1247                           	callstack 0
  1248   000006                     ___awmod@sign:
  1249                           	callstack 0
  1250   000006                     UART_Write_Text@i:
  1251                           	callstack 0
  1252                           
  1253                           ; 2 bytes @ 0x5
  1254   000006                     	ds	1
  1255   000007                     ?_abs:
  1256                           	callstack 0
  1257   000007                     ___awdiv@quotient:
  1258                           	callstack 0
  1259   000007                     abs@a:
  1260                           	callstack 0
  1261                           
  1262                           ; 2 bytes @ 0x6
  1263   000007                     	ds	2
  1264   000009                     ??_abs:
  1265                           
  1266                           ; 1 bytes @ 0x8
  1267   000009                     	ds	2
  1268   00000B                     vfpfcnvrt@fp:
  1269                           	callstack 0
  1270                           
  1271                           ; 1 bytes @ 0xA
  1272   00000B                     	ds	1
  1273   00000C                     vfpfcnvrt@fmt:
  1274                           	callstack 0
  1275                           
  1276                           ; 1 bytes @ 0xB
  1277   00000C                     	ds	1
  1278   00000D                     vfpfcnvrt@ap:
  1279                           	callstack 0
  1280                           
  1281                           ; 1 bytes @ 0xC
  1282   00000D                     	ds	1
  1283   00000E                     ??_vfpfcnvrt:
  1284                           
  1285                           ; 1 bytes @ 0xD
  1286   00000E                     	ds	1
  1287   00000F                     vfpfcnvrt@done:
  1288                           	callstack 0
  1289                           
  1290                           ; 1 bytes @ 0xE
  1291   00000F                     	ds	1
  1292   000010                     vfpfcnvrt@cp:
  1293                           	callstack 0
  1294                           
  1295                           ; 1 bytes @ 0xF
  1296   000010                     	ds	1
  1297   000011                     vfpfcnvrt@convarg:
  1298                           	callstack 0
  1299                           
  1300                           ; 4 bytes @ 0x10
  1301   000011                     	ds	4
  1302   000015                     vfpfcnvrt@c:
  1303                           	callstack 0
  1304                           
  1305                           ; 1 bytes @ 0x14
  1306   000015                     	ds	1
  1307   000016                     ?_vfprintf:
  1308                           	callstack 0
  1309   000016                     vfprintf@fp:
  1310                           	callstack 0
  1311                           
  1312                           ; 1 bytes @ 0x15
  1313   000016                     	ds	1
  1314   000017                     vfprintf@fmt:
  1315                           	callstack 0
  1316                           
  1317                           ; 1 bytes @ 0x16
  1318   000017                     	ds	1
  1319   000018                     vfprintf@ap:
  1320                           	callstack 0
  1321                           
  1322                           ; 1 bytes @ 0x17
  1323   000018                     	ds	1
  1324   000019                     vfprintf@cfmt:
  1325                           	callstack 0
  1326   000019                     
  1327                           ; 1 bytes @ 0x18
  1328   000019                     	ds	1
  1329   00001A                     ?_sprintf:
  1330                           	callstack 0
  1331   00001A                     sprintf@s:
  1332                           	callstack 0
  1333                           
  1334                           ; 1 bytes @ 0x19
  1335   00001A                     	ds	1
  1336   00001B                     sprintf@fmt:
  1337                           	callstack 0
  1338                           
  1339                           ; 1 bytes @ 0x1A
  1340   00001B                     	ds	3
  1341   00001E                     sprintf@ap:
  1342                           	callstack 0
  1343   00001E                     
  1344                           ; 1 bytes @ 0x1D
  1345   00001E                     	ds	1
  1346   00001F                     sprintf@f:
  1347                           	callstack 0
  1348                           
  1349                           ; 11 bytes @ 0x1E
  1350   00001F                     	ds	11
  1351   00002A                     ??_readX:
  1352   00002A                     ??_readY:
  1353                           
  1354                           ; 1 bytes @ 0x29
  1355   00002A                     	ds	2
  1356   00002C                     readX@value:
  1357                           	callstack 0
  1358   00002C                     readY@value:
  1359                           	callstack 0
  1360                           
  1361                           ; 20 bytes @ 0x2B
  1362   00002C                     	ds	20
  1363   000040                     readX@adcRead:
  1364                           	callstack 0
  1365   000040                     readY@adcRead:
  1366                           	callstack 0
  1367                           
  1368                           ; 2 bytes @ 0x3F
  1369   000040                     	ds	2
  1370                           
  1371 ;;
  1372 ;;Main: autosize = 0, tempsize = 0, incstack = 0, save=0
  1373 ;;
  1374 ;; *************** function _main *****************
  1375 ;; Defined at:
  1376 ;;		line 152 in file "main.c"
  1377 ;; Parameters:    Size  Location     Type
  1378 ;;		None
  1379 ;; Auto vars:     Size  Location     Type
  1380 ;;		None
  1381 ;; Return value:  Size  Location     Type
  1382 ;;                  1    wreg      void 
  1383 ;; Registers used:
  1384 ;;		wreg, status,2, status,0, cstack
  1385 ;; Tracked objects:
  1386 ;;		On entry : 0/0
  1387 ;;		On exit  : 0/0
  1388 ;;		Unchanged: 0/0
  1389 ;; Data sizes:     COMRAM   BANK0   BANK1   BANK2   BANK3   BANK4   BANK5
  1390 ;;      Params:         0       0       0       0       0       0       0
  1391 ;;      Locals:         0       0       0       0       0       0       0
  1392 ;;      Temps:          0       0       0       0       0       0       0
  1393 ;;      Totals:         0       0       0       0       0       0       0
  1394 ;;Total ram usage:        0 bytes
  1395 ;; Hardware stack levels required when called: 12
  1396 ;; This function calls:
  1397 ;;		_LEDInit
  1398 ;;		_SYSTEM_Initialize
  1399 ;;		_adc0Init
  1400 ;;		_adc1Init
  1401 ;; This function is called by:
  1402 ;;		Startup code after reset
  1403 ;; This function uses a non-reentrant model
  1404 ;;
  1405                           
  1406                           	psect	text0
  1407   000C18                     __ptext0:
  1408                           	callstack 0
  1409   000C18                     _main:
  1410                           	callstack 19
  1411   000C18                     
  1412                           ;main.c: 154:     SYSTEM_Initialize();
  1413   000C18  EC26  F007         	call	_SYSTEM_Initialize	;wreg free
  1414   000C1C                     
  1415                           ;main.c: 156:     LEDInit();
  1416   000C1C  EC51  F007         	call	_LEDInit	;wreg free
  1417   000C20                     
  1418                           ;main.c: 159:     if(axis == 0) adc0Init();
  1419   000C20  505A               	movf	_axis^0,w,c
  1420   000C22  105B               	iorwf	(_axis+1)^0,w,c
  1421   000C24  A4D8               	btfss	status,2,c
  1422   000C26  EF17  F006         	goto	u851
  1423   000C2A  EF19  F006         	goto	u850
  1424   000C2E                     u851:
  1425   000C2E  EF1B  F006         	goto	l1831
  1426   000C32                     u850:
  1427   000C32  ECB2  F006         	call	_adc0Init	;wreg free
  1428   000C36                     l1831:
  1429                           
  1430                           ;main.c: 161:     if(axis == 1) adc1Init();
  1431   000C36  045A               	decf	_axis^0,w,c
  1432   000C38  105B               	iorwf	(_axis+1)^0,w,c
  1433   000C3A  A4D8               	btfss	status,2,c
  1434   000C3C  EF22  F006         	goto	u861
  1435   000C40  EF24  F006         	goto	u860
  1436   000C44                     u861:
  1437   000C44  EF26  F006         	goto	l1835
  1438   000C48                     u860:
  1439   000C48  ECE5  F006         	call	_adc1Init	;wreg free
  1440   000C4C                     l1835:
  1441                           
  1442                           ;main.c: 166:     ADCON0bits.GO = 1;
  1443   000C4C  82C2               	bsf	194,1,c	;volatile
  1444   000C4E                     l95:
  1445   000C4E  EF27  F006         	goto	l95
  1446   000C52  EF36  F000         	goto	start
  1447   000C56                     __end_of_main:
  1448                           	callstack 0
  1449                           
  1450 ;; *************** function _adc1Init *****************
  1451 ;; Defined at:
  1452 ;;		line 112 in file "main.c"
  1453 ;; Parameters:    Size  Location     Type
  1454 ;;		None
  1455 ;; Auto vars:     Size  Location     Type
  1456 ;;		None
  1457 ;; Return value:  Size  Location     Type
  1458 ;;                  1    wreg      void 
  1459 ;; Registers used:
  1460 ;;		wreg, status,2, cstack
  1461 ;; Tracked objects:
  1462 ;;		On entry : 0/0
  1463 ;;		On exit  : 0/0
  1464 ;;		Unchanged: 0/0
  1465 ;; Data sizes:     COMRAM   BANK0   BANK1   BANK2   BANK3   BANK4   BANK5
  1466 ;;      Params:         0       0       0       0       0       0       0
  1467 ;;      Locals:         0       0       0       0       0       0       0
  1468 ;;      Temps:          0       0       0       0       0       0       0
  1469 ;;      Totals:         0       0       0       0       0       0       0
  1470 ;;Total ram usage:        0 bytes
  1471 ;; Hardware stack levels used: 1
  1472 ;; Hardware stack levels required when called: 11
  1473 ;; This function calls:
  1474 ;;		_ANPinReset
  1475 ;; This function is called by:
  1476 ;;		_main
  1477 ;; This function uses a non-reentrant model
  1478 ;;
  1479                           
  1480                           	psect	text1
  1481   000DCA                     __ptext1:
  1482                           	callstack 0
  1483   000DCA                     _adc1Init:
  1484                           	callstack 19
  1485   000DCA                     
  1486                           ;main.c: 116:     ANPinReset();
  1487   000DCA  EC1B  F007         	call	_ANPinReset	;wreg free
  1488   000DCE                     
  1489                           ;main.c: 126:     TRISAbits.RA0 = 1;
  1490   000DCE  8092               	bsf	146,0,c	;volatile
  1491   000DD0                     
  1492                           ;main.c: 128:     TRISAbits.RA1 = 0;
  1493   000DD0  9292               	bcf	146,1,c	;volatile
  1494   000DD2                     
  1495                           ;main.c: 129:     TRISAbits.RA2 = 0;
  1496   000DD2  9492               	bcf	146,2,c	;volatile
  1497   000DD4                     
  1498                           ;main.c: 131:     LATAbits.LATA2 = 0;
  1499   000DD4  9489               	bcf	137,2,c	;volatile
  1500   000DD6                     
  1501                           ;main.c: 132:     LATAbits.LATA1 = 1;
  1502   000DD6  8289               	bsf	137,1,c	;volatile
  1503   000DD8                     
  1504                           ;main.c: 134:     ADCON1bits.PCFG = 0b1110;
  1505   000DD8  50C1               	movf	193,w,c	;volatile
  1506   000DDA  0BF0               	andlw	-16
  1507   000DDC  090E               	iorlw	14
  1508   000DDE  6EC1               	movwf	193,c	;volatile
  1509   000DE0                     
  1510                           ;main.c: 135:     ADCON0bits.CHS = 0b0000;
  1511   000DE0  0EC3               	movlw	-61
  1512   000DE2  16C2               	andwf	194,f,c	;volatile
  1513   000DE4                     
  1514                           ;main.c: 136:     _delay((unsigned long)((5)*(1000000/4000000.0)));
  1515   000DE4  0000               	nop	
  1516   000DE6  0012               	return		;funcret
  1517   000DE8                     __end_of_adc1Init:
  1518                           	callstack 0
  1519                           
  1520 ;; *************** function _adc0Init *****************
  1521 ;; Defined at:
  1522 ;;		line 86 in file "main.c"
  1523 ;; Parameters:    Size  Location     Type
  1524 ;;		None
  1525 ;; Auto vars:     Size  Location     Type
  1526 ;;		None
  1527 ;; Return value:  Size  Location     Type
  1528 ;;                  1    wreg      void 
  1529 ;; Registers used:
  1530 ;;		wreg, status,2, cstack
  1531 ;; Tracked objects:
  1532 ;;		On entry : 0/0
  1533 ;;		On exit  : 0/0
  1534 ;;		Unchanged: 0/0
  1535 ;; Data sizes:     COMRAM   BANK0   BANK1   BANK2   BANK3   BANK4   BANK5
  1536 ;;      Params:         0       0       0       0       0       0       0
  1537 ;;      Locals:         0       0       0       0       0       0       0
  1538 ;;      Temps:          0       0       0       0       0       0       0
  1539 ;;      Totals:         0       0       0       0       0       0       0
  1540 ;;Total ram usage:        0 bytes
  1541 ;; Hardware stack levels used: 1
  1542 ;; Hardware stack levels required when called: 11
  1543 ;; This function calls:
  1544 ;;		_ANPinReset
  1545 ;; This function is called by:
  1546 ;;		_main
  1547 ;; This function uses a non-reentrant model
  1548 ;;
  1549                           
  1550                           	psect	text2
  1551   000D64                     __ptext2:
  1552                           	callstack 0
  1553   000D64                     _adc0Init:
  1554                           	callstack 19
  1555   000D64                     
  1556                           ;main.c: 89:     ANPinReset();
  1557   000D64  EC1B  F007         	call	_ANPinReset	;wreg free
  1558   000D68                     
  1559                           ;main.c: 99:     TRISAbits.RA2 = 1;
  1560   000D68  8492               	bsf	146,2,c	;volatile
  1561   000D6A                     
  1562                           ;main.c: 101:     TRISAbits.RA3 = 0;
  1563   000D6A  9692               	bcf	146,3,c	;volatile
  1564   000D6C                     
  1565                           ;main.c: 102:     TRISAbits.RA4 = 0;
  1566   000D6C  9892               	bcf	146,4,c	;volatile
  1567   000D6E                     
  1568                           ;main.c: 104:     LATAbits.LATA3 = 0;
  1569   000D6E  9689               	bcf	137,3,c	;volatile
  1570   000D70                     
  1571                           ;main.c: 105:     LATAbits.LATA4 = 1;
  1572   000D70  8889               	bsf	137,4,c	;volatile
  1573   000D72                     
  1574                           ;main.c: 107:     ADCON1bits.PCFG = 0b1100;
  1575   000D72  50C1               	movf	193,w,c	;volatile
  1576   000D74  0BF0               	andlw	-16
  1577   000D76  090C               	iorlw	12
  1578   000D78  6EC1               	movwf	193,c	;volatile
  1579   000D7A                     
  1580                           ;main.c: 108:     ADCON0bits.CHS = 0b0010;
  1581   000D7A  50C2               	movf	194,w,c	;volatile
  1582   000D7C  0BC3               	andlw	-61
  1583   000D7E  0908               	iorlw	8
  1584   000D80  6EC2               	movwf	194,c	;volatile
  1585   000D82                     
  1586                           ;main.c: 109:     _delay((unsigned long)((5)*(1000000/4000000.0)));
  1587   000D82  0000               	nop	
  1588   000D84  0012               	return		;funcret
  1589   000D86                     __end_of_adc0Init:
  1590                           	callstack 0
  1591                           
  1592 ;; *************** function _ANPinReset *****************
  1593 ;; Defined at:
  1594 ;;		line 71 in file "main.c"
  1595 ;; Parameters:    Size  Location     Type
  1596 ;;		None
  1597 ;; Auto vars:     Size  Location     Type
  1598 ;;		None
  1599 ;; Return value:  Size  Location     Type
  1600 ;;                  1    wreg      void 
  1601 ;; Registers used:
  1602 ;;		None
  1603 ;; Tracked objects:
  1604 ;;		On entry : 0/0
  1605 ;;		On exit  : 0/0
  1606 ;;		Unchanged: 0/0
  1607 ;; Data sizes:     COMRAM   BANK0   BANK1   BANK2   BANK3   BANK4   BANK5
  1608 ;;      Params:         0       0       0       0       0       0       0
  1609 ;;      Locals:         0       0       0       0       0       0       0
  1610 ;;      Temps:          0       0       0       0       0       0       0
  1611 ;;      Totals:         0       0       0       0       0       0       0
  1612 ;;Total ram usage:        0 bytes
  1613 ;; Hardware stack levels used: 1
  1614 ;; Hardware stack levels required when called: 10
  1615 ;; This function calls:
  1616 ;;		Nothing
  1617 ;; This function is called by:
  1618 ;;		_adc0Init
  1619 ;;		_adc1Init
  1620 ;; This function uses a non-reentrant model
  1621 ;;
  1622                           
  1623                           	psect	text3
  1624   000E36                     __ptext3:
  1625                           	callstack 0
  1626   000E36                     _ANPinReset:
  1627                           	callstack 19
  1628   000E36                     
  1629                           ;main.c: 72:     TRISAbits.RA0 = 1;
  1630   000E36  8092               	bsf	146,0,c	;volatile
  1631                           
  1632                           ;main.c: 73:     TRISAbits.RA1 = 1;
  1633   000E38  8292               	bsf	146,1,c	;volatile
  1634                           
  1635                           ;main.c: 74:     TRISAbits.RA2 = 1;
  1636   000E3A  8492               	bsf	146,2,c	;volatile
  1637                           
  1638                           ;main.c: 75:     TRISAbits.RA3 = 1;
  1639   000E3C  8692               	bsf	146,3,c	;volatile
  1640                           
  1641                           ;main.c: 76:     TRISAbits.RA4 = 1;
  1642   000E3E  8892               	bsf	146,4,c	;volatile
  1643                           
  1644                           ;main.c: 77:     LATAbits.LATA0 = 0;
  1645   000E40  9089               	bcf	137,0,c	;volatile
  1646                           
  1647                           ;main.c: 78:     LATAbits.LATA1 = 0;
  1648   000E42  9289               	bcf	137,1,c	;volatile
  1649                           
  1650                           ;main.c: 79:     LATAbits.LATA2 = 0;
  1651   000E44  9489               	bcf	137,2,c	;volatile
  1652                           
  1653                           ;main.c: 80:     LATAbits.LATA3 = 0;
  1654   000E46  9689               	bcf	137,3,c	;volatile
  1655                           
  1656                           ;main.c: 81:     LATAbits.LATA4 = 0;
  1657   000E48  9889               	bcf	137,4,c	;volatile
  1658   000E4A  0012               	return		;funcret
  1659   000E4C                     __end_of_ANPinReset:
  1660                           	callstack 0
  1661                           
  1662 ;; *************** function _SYSTEM_Initialize *****************
  1663 ;; Defined at:
  1664 ;;		line 96 in file "setting_hardaware/setting.c"
  1665 ;; Parameters:    Size  Location     Type
  1666 ;;		None
  1667 ;; Auto vars:     Size  Location     Type
  1668 ;;		None
  1669 ;; Return value:  Size  Location     Type
  1670 ;;                  1    wreg      void 
  1671 ;; Registers used:
  1672 ;;		wreg, status,2, cstack
  1673 ;; Tracked objects:
  1674 ;;		On entry : 0/0
  1675 ;;		On exit  : 0/0
  1676 ;;		Unchanged: 0/0
  1677 ;; Data sizes:     COMRAM   BANK0   BANK1   BANK2   BANK3   BANK4   BANK5
  1678 ;;      Params:         0       0       0       0       0       0       0
  1679 ;;      Locals:         0       0       0       0       0       0       0
  1680 ;;      Temps:          0       0       0       0       0       0       0
  1681 ;;      Totals:         0       0       0       0       0       0       0
  1682 ;;Total ram usage:        0 bytes
  1683 ;; Hardware stack levels used: 1
  1684 ;; Hardware stack levels required when called: 11
  1685 ;; This function calls:
  1686 ;;		_ADC_Initialize
  1687 ;;		_INTERRUPT_Initialize
  1688 ;;		_OSCILLATOR_Initialize
  1689 ;;		_TMR2_Initialize
  1690 ;;		_UART_Initialize
  1691 ;; This function is called by:
  1692 ;;		_main
  1693 ;; This function uses a non-reentrant model
  1694 ;;
  1695                           
  1696                           	psect	text4
  1697   000E4C                     __ptext4:
  1698                           	callstack 0
  1699   000E4C                     _SYSTEM_Initialize:
  1700                           	callstack 19
  1701   000E4C                     
  1702                           ;setting_hardaware/setting.c: 98:     OSCILLATOR_Initialize();
  1703   000E4C  EC5A  F007         	call	_OSCILLATOR_Initialize	;wreg free
  1704   000E50                     
  1705                           ;setting_hardaware/setting.c: 99:     TMR2_Initialize();
  1706   000E50  EC47  F007         	call	_TMR2_Initialize	;wreg free
  1707   000E54                     
  1708                           ;setting_hardaware/setting.c: 102:     INTERRUPT_Initialize();
  1709   000E54  EC5E  F007         	call	_INTERRUPT_Initialize	;wreg free
  1710                           
  1711                           ;setting_hardaware/setting.c: 103:     UART_Initialize();
  1712   000E58  ECC3  F006         	call	_UART_Initialize	;wreg free
  1713                           
  1714                           ;setting_hardaware/setting.c: 106:     ADC_Initialize();
  1715   000E5C  EC9C  F006         	call	_ADC_Initialize	;wreg free
  1716   000E60  0012               	return		;funcret
  1717   000E62                     __end_of_SYSTEM_Initialize:
  1718                           	callstack 0
  1719                           
  1720 ;; *************** function _UART_Initialize *****************
  1721 ;; Defined at:
  1722 ;;		line 9 in file "setting_hardaware/uart.c"
  1723 ;; Parameters:    Size  Location     Type
  1724 ;;		None
  1725 ;; Auto vars:     Size  Location     Type
  1726 ;;		None
  1727 ;; Return value:  Size  Location     Type
  1728 ;;                  1    wreg      void 
  1729 ;; Registers used:
  1730 ;;		wreg, status,2
  1731 ;; Tracked objects:
  1732 ;;		On entry : 0/0
  1733 ;;		On exit  : 0/0
  1734 ;;		Unchanged: 0/0
  1735 ;; Data sizes:     COMRAM   BANK0   BANK1   BANK2   BANK3   BANK4   BANK5
  1736 ;;      Params:         0       0       0       0       0       0       0
  1737 ;;      Locals:         0       0       0       0       0       0       0
  1738 ;;      Temps:          0       0       0       0       0       0       0
  1739 ;;      Totals:         0       0       0       0       0       0       0
  1740 ;;Total ram usage:        0 bytes
  1741 ;; Hardware stack levels used: 1
  1742 ;; Hardware stack levels required when called: 10
  1743 ;; This function calls:
  1744 ;;		Nothing
  1745 ;; This function is called by:
  1746 ;;		_SYSTEM_Initialize
  1747 ;; This function uses a non-reentrant model
  1748 ;;
  1749                           
  1750                           	psect	text5
  1751   000D86                     __ptext5:
  1752                           	callstack 0
  1753   000D86                     _UART_Initialize:
  1754                           	callstack 19
  1755   000D86                     
  1756                           ;setting_hardaware/uart.c: 21:     TRISCbits.TRISC6 = 1;
  1757   000D86  8C94               	bsf	148,6,c	;volatile
  1758                           
  1759                           ;setting_hardaware/uart.c: 22:     TRISCbits.TRISC7 = 1;
  1760   000D88  8E94               	bsf	148,7,c	;volatile
  1761                           
  1762                           ;setting_hardaware/uart.c: 25:     TXSTAbits.SYNC = 0;
  1763   000D8A  98AC               	bcf	172,4,c	;volatile
  1764                           
  1765                           ;setting_hardaware/uart.c: 26:     BAUDCONbits.BRG16 = 0;
  1766   000D8C  96B8               	bcf	184,3,c	;volatile
  1767                           
  1768                           ;setting_hardaware/uart.c: 27:     TXSTAbits.BRGH = 0;
  1769   000D8E  94AC               	bcf	172,2,c	;volatile
  1770   000D90                     
  1771                           ;setting_hardaware/uart.c: 28:     SPBRG = 12;
  1772   000D90  0E0C               	movlw	12
  1773   000D92  6EAF               	movwf	175,c	;volatile
  1774   000D94                     
  1775                           ;setting_hardaware/uart.c: 31:     RCSTAbits.SPEN = 1;
  1776   000D94  8EAB               	bsf	171,7,c	;volatile
  1777   000D96                     
  1778                           ;setting_hardaware/uart.c: 32:     PIR1bits.TXIF = 0;
  1779   000D96  989E               	bcf	158,4,c	;volatile
  1780   000D98                     
  1781                           ;setting_hardaware/uart.c: 33:     PIR1bits.RCIF = 1;
  1782   000D98  8A9E               	bsf	158,5,c	;volatile
  1783   000D9A                     
  1784                           ;setting_hardaware/uart.c: 34:     TXSTAbits.TXEN = 1;
  1785   000D9A  8AAC               	bsf	172,5,c	;volatile
  1786   000D9C                     
  1787                           ;setting_hardaware/uart.c: 35:     RCSTAbits.CREN = 1;
  1788   000D9C  88AB               	bsf	171,4,c	;volatile
  1789   000D9E                     
  1790                           ;setting_hardaware/uart.c: 36:     PIE1bits.TXIE = 0;
  1791   000D9E  989D               	bcf	157,4,c	;volatile
  1792   000DA0                     
  1793                           ;setting_hardaware/uart.c: 37:     IPR1bits.TXIP = 0;
  1794   000DA0  989F               	bcf	159,4,c	;volatile
  1795   000DA2                     
  1796                           ;setting_hardaware/uart.c: 38:     PIE1bits.RCIE = 1;
  1797   000DA2  8A9D               	bsf	157,5,c	;volatile
  1798   000DA4                     
  1799                           ;setting_hardaware/uart.c: 39:     IPR1bits.RCIP = 0;
  1800   000DA4  9A9F               	bcf	159,5,c	;volatile
  1801   000DA6  0012               	return		;funcret
  1802   000DA8                     __end_of_UART_Initialize:
  1803                           	callstack 0
  1804                           
  1805 ;; *************** function _TMR2_Initialize *****************
  1806 ;; Defined at:
  1807 ;;		line 60 in file "setting_hardaware/setting.c"
  1808 ;; Parameters:    Size  Location     Type
  1809 ;;		None
  1810 ;; Auto vars:     Size  Location     Type
  1811 ;;		None
  1812 ;; Return value:  Size  Location     Type
  1813 ;;                  1    wreg      void 
  1814 ;; Registers used:
  1815 ;;		wreg, status,2
  1816 ;; Tracked objects:
  1817 ;;		On entry : 0/0
  1818 ;;		On exit  : 0/0
  1819 ;;		Unchanged: 0/0
  1820 ;; Data sizes:     COMRAM   BANK0   BANK1   BANK2   BANK3   BANK4   BANK5
  1821 ;;      Params:         0       0       0       0       0       0       0
  1822 ;;      Locals:         0       0       0       0       0       0       0
  1823 ;;      Temps:          0       0       0       0       0       0       0
  1824 ;;      Totals:         0       0       0       0       0       0       0
  1825 ;;Total ram usage:        0 bytes
  1826 ;; Hardware stack levels used: 1
  1827 ;; Hardware stack levels required when called: 10
  1828 ;; This function calls:
  1829 ;;		Nothing
  1830 ;; This function is called by:
  1831 ;;		_SYSTEM_Initialize
  1832 ;; This function uses a non-reentrant model
  1833 ;;
  1834                           
  1835                           	psect	text6
  1836   000E8E                     __ptext6:
  1837                           	callstack 0
  1838   000E8E                     _TMR2_Initialize:
  1839                           	callstack 19
  1840   000E8E                     
  1841                           ;setting_hardaware/setting.c: 61:     PIR1bits.TMR2IF = 0;
  1842   000E8E  929E               	bcf	158,1,c	;volatile
  1843                           
  1844                           ;setting_hardaware/setting.c: 62:     PIE1bits.TMR2IE = 1;
  1845   000E90  829D               	bsf	157,1,c	;volatile
  1846                           
  1847                           ;setting_hardaware/setting.c: 63:     IPR1bits.TMR2IP = 1;
  1848   000E92  829F               	bsf	159,1,c	;volatile
  1849   000E94                     
  1850                           ;setting_hardaware/setting.c: 64:     T2CONbits.T2OUTPS = 0x0f;
  1851   000E94  0E78               	movlw	120
  1852   000E96  12CA               	iorwf	202,f,c	;volatile
  1853                           
  1854                           ;setting_hardaware/setting.c: 65:     T2CONbits.T2CKPS = 0x03;
  1855   000E98  0E03               	movlw	3
  1856   000E9A  12CA               	iorwf	202,f,c	;volatile
  1857   000E9C                     
  1858                           ;setting_hardaware/setting.c: 66:     T2CONbits.TMR2ON = 1;
  1859   000E9C  84CA               	bsf	202,2,c	;volatile
  1860   000E9E                     
  1861                           ;setting_hardaware/setting.c: 67:     PR2 = 255;
  1862   000E9E  68CB               	setf	203,c	;volatile
  1863   000EA0  0012               	return		;funcret
  1864   000EA2                     __end_of_TMR2_Initialize:
  1865                           	callstack 0
  1866                           
  1867 ;; *************** function _OSCILLATOR_Initialize *****************
  1868 ;; Defined at:
  1869 ;;		line 112 in file "setting_hardaware/setting.c"
  1870 ;; Parameters:    Size  Location     Type
  1871 ;;		None
  1872 ;; Auto vars:     Size  Location     Type
  1873 ;;		None
  1874 ;; Return value:  Size  Location     Type
  1875 ;;                  1    wreg      void 
  1876 ;; Registers used:
  1877 ;;		None
  1878 ;; Tracked objects:
  1879 ;;		On entry : 0/0
  1880 ;;		On exit  : 0/0
  1881 ;;		Unchanged: 0/0
  1882 ;; Data sizes:     COMRAM   BANK0   BANK1   BANK2   BANK3   BANK4   BANK5
  1883 ;;      Params:         0       0       0       0       0       0       0
  1884 ;;      Locals:         0       0       0       0       0       0       0
  1885 ;;      Temps:          0       0       0       0       0       0       0
  1886 ;;      Totals:         0       0       0       0       0       0       0
  1887 ;;Total ram usage:        0 bytes
  1888 ;; Hardware stack levels used: 1
  1889 ;; Hardware stack levels required when called: 10
  1890 ;; This function calls:
  1891 ;;		Nothing
  1892 ;; This function is called by:
  1893 ;;		_SYSTEM_Initialize
  1894 ;; This function uses a non-reentrant model
  1895 ;;
  1896                           
  1897                           	psect	text7
  1898   000EB4                     __ptext7:
  1899                           	callstack 0
  1900   000EB4                     _OSCILLATOR_Initialize:
  1901                           	callstack 19
  1902   000EB4                     
  1903                           ;setting_hardaware/setting.c: 114:     IRCF2 = 1;
  1904   000EB4  8CD3               	bsf	4051,6,c	;volatile
  1905                           
  1906                           ;setting_hardaware/setting.c: 115:     IRCF1 = 0;
  1907   000EB6  9AD3               	bcf	4051,5,c	;volatile
  1908                           
  1909                           ;setting_hardaware/setting.c: 116:     IRCF0 = 0;
  1910   000EB8  98D3               	bcf	4051,4,c	;volatile
  1911   000EBA  0012               	return		;funcret
  1912   000EBC                     __end_of_OSCILLATOR_Initialize:
  1913                           	callstack 0
  1914                           
  1915 ;; *************** function _INTERRUPT_Initialize *****************
  1916 ;; Defined at:
  1917 ;;		line 3 in file "setting_hardaware/interrupt_manager.c"
  1918 ;; Parameters:    Size  Location     Type
  1919 ;;		None
  1920 ;; Auto vars:     Size  Location     Type
  1921 ;;		None
  1922 ;; Return value:  Size  Location     Type
  1923 ;;                  1    wreg      void 
  1924 ;; Registers used:
  1925 ;;		None
  1926 ;; Tracked objects:
  1927 ;;		On entry : 0/0
  1928 ;;		On exit  : 0/0
  1929 ;;		Unchanged: 0/0
  1930 ;; Data sizes:     COMRAM   BANK0   BANK1   BANK2   BANK3   BANK4   BANK5
  1931 ;;      Params:         0       0       0       0       0       0       0
  1932 ;;      Locals:         0       0       0       0       0       0       0
  1933 ;;      Temps:          0       0       0       0       0       0       0
  1934 ;;      Totals:         0       0       0       0       0       0       0
  1935 ;;Total ram usage:        0 bytes
  1936 ;; Hardware stack levels used: 1
  1937 ;; Hardware stack levels required when called: 10
  1938 ;; This function calls:
  1939 ;;		Nothing
  1940 ;; This function is called by:
  1941 ;;		_SYSTEM_Initialize
  1942 ;; This function uses a non-reentrant model
  1943 ;;
  1944                           
  1945                           	psect	text8
  1946   000EBC                     __ptext8:
  1947                           	callstack 0
  1948   000EBC                     _INTERRUPT_Initialize:
  1949                           	callstack 19
  1950   000EBC                     
  1951                           ;setting_hardaware/interrupt_manager.c: 5:     RCONbits.IPEN = 1;
  1952   000EBC  8ED0               	bsf	208,7,c	;volatile
  1953                           
  1954                           ;setting_hardaware/interrupt_manager.c: 6:     INTCONbits.GIEH = 1;
  1955   000EBE  8EF2               	bsf	242,7,c	;volatile
  1956                           
  1957                           ;setting_hardaware/interrupt_manager.c: 7:     INTCONbits.GIEL = 1;
  1958   000EC0  8CF2               	bsf	242,6,c	;volatile
  1959   000EC2  0012               	return		;funcret
  1960   000EC4                     __end_of_INTERRUPT_Initialize:
  1961                           	callstack 0
  1962                           
  1963 ;; *************** function _ADC_Initialize *****************
  1964 ;; Defined at:
  1965 ;;		line 3 in file "setting_hardaware/adc.c"
  1966 ;; Parameters:    Size  Location     Type
  1967 ;;		None
  1968 ;; Auto vars:     Size  Location     Type
  1969 ;;		None
  1970 ;; Return value:  Size  Location     Type
  1971 ;;                  1    wreg      void 
  1972 ;; Registers used:
  1973 ;;		wreg, status,2
  1974 ;; Tracked objects:
  1975 ;;		On entry : 0/0
  1976 ;;		On exit  : 0/0
  1977 ;;		Unchanged: 0/0
  1978 ;; Data sizes:     COMRAM   BANK0   BANK1   BANK2   BANK3   BANK4   BANK5
  1979 ;;      Params:         0       0       0       0       0       0       0
  1980 ;;      Locals:         0       0       0       0       0       0       0
  1981 ;;      Temps:          0       0       0       0       0       0       0
  1982 ;;      Totals:         0       0       0       0       0       0       0
  1983 ;;Total ram usage:        0 bytes
  1984 ;; Hardware stack levels used: 1
  1985 ;; Hardware stack levels required when called: 10
  1986 ;; This function calls:
  1987 ;;		Nothing
  1988 ;; This function is called by:
  1989 ;;		_SYSTEM_Initialize
  1990 ;; This function uses a non-reentrant model
  1991 ;;
  1992                           
  1993                           	psect	text9
  1994   000D38                     __ptext9:
  1995                           	callstack 0
  1996   000D38                     _ADC_Initialize:
  1997                           	callstack 19
  1998   000D38                     
  1999                           ;setting_hardaware/adc.c: 4:     TRISAbits.RA0 = 1;
  2000   000D38  8092               	bsf	146,0,c	;volatile
  2001                           
  2002                           ;setting_hardaware/adc.c: 6:     ADCON1bits.VCFG0 = 0;
  2003   000D3A  98C1               	bcf	193,4,c	;volatile
  2004                           
  2005                           ;setting_hardaware/adc.c: 7:     ADCON1bits.VCFG1 = 0;
  2006   000D3C  9AC1               	bcf	193,5,c	;volatile
  2007   000D3E                     
  2008                           ;setting_hardaware/adc.c: 8:     ADCON1bits.PCFG = 0b1110;
  2009   000D3E  50C1               	movf	193,w,c	;volatile
  2010   000D40  0BF0               	andlw	-16
  2011   000D42  090E               	iorlw	14
  2012   000D44  6EC1               	movwf	193,c	;volatile
  2013                           
  2014                           ;setting_hardaware/adc.c: 9:     ADCON0bits.CHS = 0b0000;
  2015   000D46  0EC3               	movlw	-61
  2016   000D48  16C2               	andwf	194,f,c	;volatile
  2017                           
  2018                           ;setting_hardaware/adc.c: 10:     ADCON2bits.ADCS = 0b000;
  2019   000D4A  0EF8               	movlw	-8
  2020   000D4C  16C0               	andwf	192,f,c	;volatile
  2021                           
  2022                           ;setting_hardaware/adc.c: 11:     ADCON2bits.ACQT = 0b001;
  2023   000D4E  50C0               	movf	192,w,c	;volatile
  2024   000D50  0BC7               	andlw	-57
  2025   000D52  0908               	iorlw	8
  2026   000D54  6EC0               	movwf	192,c	;volatile
  2027   000D56                     
  2028                           ;setting_hardaware/adc.c: 12:     ADCON0bits.ADON = 1;
  2029   000D56  80C2               	bsf	194,0,c	;volatile
  2030   000D58                     
  2031                           ;setting_hardaware/adc.c: 13:     ADCON2bits.ADFM = 1 ;
  2032   000D58  8EC0               	bsf	192,7,c	;volatile
  2033   000D5A                     
  2034                           ;setting_hardaware/adc.c: 15:     PIE1bits.ADIE = 1;
  2035   000D5A  8C9D               	bsf	157,6,c	;volatile
  2036   000D5C                     
  2037                           ;setting_hardaware/adc.c: 16:     PIR1bits.ADIF = 0;
  2038   000D5C  9C9E               	bcf	158,6,c	;volatile
  2039   000D5E                     
  2040                           ;setting_hardaware/adc.c: 18:     ADRESH=0;
  2041   000D5E  6AC4               	clrf	196,c	;volatile
  2042   000D60                     
  2043                           ;setting_hardaware/adc.c: 19:     ADRESL=0;
  2044   000D60  6AC3               	clrf	195,c	;volatile
  2045   000D62  0012               	return		;funcret
  2046   000D64                     __end_of_ADC_Initialize:
  2047                           	callstack 0
  2048                           
  2049 ;; *************** function _LEDInit *****************
  2050 ;; Defined at:
  2051 ;;		line 139 in file "main.c"
  2052 ;; Parameters:    Size  Location     Type
  2053 ;;		None
  2054 ;; Auto vars:     Size  Location     Type
  2055 ;;		None
  2056 ;; Return value:  Size  Location     Type
  2057 ;;                  1    wreg      void 
  2058 ;; Registers used:
  2059 ;;		None
  2060 ;; Tracked objects:
  2061 ;;		On entry : 0/0
  2062 ;;		On exit  : 0/0
  2063 ;;		Unchanged: 0/0
  2064 ;; Data sizes:     COMRAM   BANK0   BANK1   BANK2   BANK3   BANK4   BANK5
  2065 ;;      Params:         0       0       0       0       0       0       0
  2066 ;;      Locals:         0       0       0       0       0       0       0
  2067 ;;      Temps:          0       0       0       0       0       0       0
  2068 ;;      Totals:         0       0       0       0       0       0       0
  2069 ;;Total ram usage:        0 bytes
  2070 ;; Hardware stack levels used: 1
  2071 ;; Hardware stack levels required when called: 10
  2072 ;; This function calls:
  2073 ;;		Nothing
  2074 ;; This function is called by:
  2075 ;;		_main
  2076 ;; This function uses a non-reentrant model
  2077 ;;
  2078                           
  2079                           	psect	text10
  2080   000EA2                     __ptext10:
  2081                           	callstack 0
  2082   000EA2                     _LEDInit:
  2083                           	callstack 20
  2084   000EA2                     
  2085                           ;main.c: 141:     TRISBbits.TRISB3 = 0;
  2086   000EA2  9693               	bcf	147,3,c	;volatile
  2087                           
  2088                           ;main.c: 142:     TRISBbits.TRISB2 = 0;
  2089   000EA4  9493               	bcf	147,2,c	;volatile
  2090                           
  2091                           ;main.c: 143:     TRISBbits.TRISB1 = 0;
  2092   000EA6  9293               	bcf	147,1,c	;volatile
  2093                           
  2094                           ;main.c: 144:     TRISBbits.TRISB0 = 0;
  2095   000EA8  9093               	bcf	147,0,c	;volatile
  2096                           
  2097                           ;main.c: 145:     LATBbits.LATB3 = 0;
  2098   000EAA  968A               	bcf	138,3,c	;volatile
  2099                           
  2100                           ;main.c: 146:     LATBbits.LATB2 = 0;
  2101   000EAC  948A               	bcf	138,2,c	;volatile
  2102                           
  2103                           ;main.c: 147:     LATBbits.LATB1 = 0;
  2104   000EAE  928A               	bcf	138,1,c	;volatile
  2105                           
  2106                           ;main.c: 148:     LATBbits.LATB0 = 0;
  2107   000EB0  908A               	bcf	138,0,c	;volatile
  2108   000EB2  0012               	return		;funcret
  2109   000EB4                     __end_of_LEDInit:
  2110                           	callstack 0
  2111                           
  2112 ;; *************** function _Lo_ISR *****************
  2113 ;; Defined at:
  2114 ;;		line 84 in file "setting_hardaware/uart.c"
  2115 ;; Parameters:    Size  Location     Type
  2116 ;;		None
  2117 ;; Auto vars:     Size  Location     Type
  2118 ;;		None
  2119 ;; Return value:  Size  Location     Type
  2120 ;;                  1    wreg      void 
  2121 ;; Registers used:
  2122 ;;		wreg, fsr2l, fsr2h, status,2, status,0, cstack
  2123 ;; Tracked objects:
  2124 ;;		On entry : 0/0
  2125 ;;		On exit  : 0/0
  2126 ;;		Unchanged: 0/0
  2127 ;; Data sizes:     COMRAM   BANK0   BANK1   BANK2   BANK3   BANK4   BANK5
  2128 ;;      Params:         0       0       0       0       0       0       0
  2129 ;;      Locals:         0       0       0       0       0       0       0
  2130 ;;      Temps:          0       0       5       0       0       0       0
  2131 ;;      Totals:         0       0       5       0       0       0       0
  2132 ;;Total ram usage:        5 bytes
  2133 ;; Hardware stack levels used: 1
  2134 ;; Hardware stack levels required when called: 9
  2135 ;; This function calls:
  2136 ;;		_MyusartRead
  2137 ;; This function is called by:
  2138 ;;		Interrupt level 1
  2139 ;; This function uses a non-reentrant model
  2140 ;;
  2141                           
  2142                           	psect	intcodelo
  2143   000018                     __pintcodelo:
  2144                           	callstack 0
  2145   000018                     _Lo_ISR:
  2146                           	callstack 19
  2147                           
  2148                           ;incstack = 0
  2149   000018  8077               	bsf	int$flags,0,c	;set compiler interrupt flag (level 1)
  2150   00001A  CFD8 F100          	movff	status,??_Lo_ISR
  2151   00001E  CFE8 F101          	movff	wreg,??_Lo_ISR+1
  2152   000022  CFE0 F102          	movff	bsr,??_Lo_ISR+2
  2153   000026  CFD9 F103          	movff	fsr2l,??_Lo_ISR+3
  2154   00002A  CFDA F104          	movff	fsr2h,??_Lo_ISR+4
  2155   00002E                     
  2156                           ;setting_hardaware/uart.c: 86:     if(RCIF)
  2157   00002E  AA9E               	btfss	3998,5,c	;volatile
  2158   000030  EF1C  F000         	goto	i1u100_21
  2159   000034  EF1E  F000         	goto	i1u100_20
  2160   000038                     i1u100_21:
  2161   000038  EF2A  F000         	goto	i1l272
  2162   00003C                     i1u100_20:
  2163   00003C                     
  2164                           ;setting_hardaware/uart.c: 87:     {;setting_hardaware/uart.c: 88:         if(RCSTAbits.
      +                          OERR)
  2165   00003C  A2AB               	btfss	171,1,c	;volatile
  2166   00003E  EF23  F000         	goto	i1u101_21
  2167   000042  EF25  F000         	goto	i1u101_20
  2168   000046                     i1u101_21:
  2169   000046  EF28  F000         	goto	i1l1923
  2170   00004A                     i1u101_20:
  2171   00004A                     
  2172                           ;setting_hardaware/uart.c: 89:         {;setting_hardaware/uart.c: 90:             CREN 
      +                          = 0;
  2173   00004A  98AB               	bcf	4011,4,c	;volatile
  2174                           
  2175                           ;setting_hardaware/uart.c: 91:             __nop();
  2176   00004C  0000               	nop	
  2177                           
  2178                           ;setting_hardaware/uart.c: 92:             CREN = 1;
  2179   00004E  88AB               	bsf	4011,4,c	;volatile
  2180   000050                     i1l1923:
  2181                           
  2182                           ;setting_hardaware/uart.c: 95:         MyusartRead();
  2183   000050  EC90  F005         	call	_MyusartRead	;wreg free
  2184   000054                     i1l272:
  2185   000054  C104  FFDA         	movff	??_Lo_ISR+4,fsr2h
  2186   000058  C103  FFD9         	movff	??_Lo_ISR+3,fsr2l
  2187   00005C  C102  FFE0         	movff	??_Lo_ISR+2,bsr
  2188   000060  C101  FFE8         	movff	??_Lo_ISR+1,wreg
  2189   000064  C100  FFD8         	movff	??_Lo_ISR,status
  2190   000068  9077               	bcf	int$flags,0,c	;clear compiler interrupt flag (level 1)
  2191   00006A  0010               	retfie	
  2192   00006C                     __end_of_Lo_ISR:
  2193                           	callstack 0
  2194                           
  2195 ;; *************** function _MyusartRead *****************
  2196 ;; Defined at:
  2197 ;;		line 57 in file "setting_hardaware/uart.c"
  2198 ;; Parameters:    Size  Location     Type
  2199 ;;		None
  2200 ;; Auto vars:     Size  Location     Type
  2201 ;;  ch              1   11[BANK0 ] unsigned char 
  2202 ;; Return value:  Size  Location     Type
  2203 ;;                  1    wreg      void 
  2204 ;; Registers used:
  2205 ;;		wreg, fsr2l, fsr2h, status,2, status,0, cstack
  2206 ;; Tracked objects:
  2207 ;;		On entry : 0/0
  2208 ;;		On exit  : 0/0
  2209 ;;		Unchanged: 0/0
  2210 ;; Data sizes:     COMRAM   BANK0   BANK1   BANK2   BANK3   BANK4   BANK5
  2211 ;;      Params:         0       0       0       0       0       0       0
  2212 ;;      Locals:         0       1       0       0       0       0       0
  2213 ;;      Temps:          0       0       0       0       0       0       0
  2214 ;;      Totals:         0       1       0       0       0       0       0
  2215 ;;Total ram usage:        1 bytes
  2216 ;; Hardware stack levels used: 1
  2217 ;; Hardware stack levels required when called: 8
  2218 ;; This function calls:
  2219 ;;		_UART_Write
  2220 ;; This function is called by:
  2221 ;;		_Lo_ISR
  2222 ;; This function uses a non-reentrant model
  2223 ;;
  2224                           
  2225                           	psect	text12
  2226   000B20                     __ptext12:
  2227                           	callstack 0
  2228   000B20                     _MyusartRead:
  2229                           	callstack 19
  2230   000B20                     
  2231                           ;setting_hardaware/uart.c: 60:     unsigned char ch = RCREG;
  2232   000B20  CFAE F0F3          	movff	4014,MyusartRead@ch	;volatile
  2233   000B24                     
  2234                           ;setting_hardaware/uart.c: 61:     UART_Write(ch);
  2235   000B24  0100               	movlb	0	; () banked
  2236   000B26  51F3               	movf	MyusartRead@ch& (0+255),w,b
  2237   000B28  EC0F  F007         	call	_UART_Write
  2238   000B2C                     
  2239                           ;setting_hardaware/uart.c: 62:     if(stringReady == 0) {
  2240   000B2C  5056               	movf	_stringReady^0,w,c
  2241   000B2E  1057               	iorwf	(_stringReady+1)^0,w,c
  2242   000B30  A4D8               	btfss	status,2,c
  2243   000B32  EF9D  F005         	goto	i1u82_21
  2244   000B36  EF9F  F005         	goto	i1u82_20
  2245   000B3A                     i1u82_21:
  2246   000B3A  EFC5  F005         	goto	i1l259
  2247   000B3E                     i1u82_20:
  2248   000B3E                     
  2249                           ;setting_hardaware/uart.c: 63:         if(ch == '\n' || ch == '\r'){
  2250   000B3E  0E0A               	movlw	10
  2251   000B40  0100               	movlb	0	; () banked
  2252   000B42  19F3               	xorwf	MyusartRead@ch& (0+255),w,b
  2253   000B44  B4D8               	btfsc	status,2,c
  2254   000B46  EFA7  F005         	goto	i1u83_21
  2255   000B4A  EFA9  F005         	goto	i1u83_20
  2256   000B4E                     i1u83_21:
  2257   000B4E  EFB2  F005         	goto	i1l1813
  2258   000B52                     i1u83_20:
  2259   000B52                     
  2260                           ; BSR set to: 0
  2261   000B52  0E0D               	movlw	13
  2262   000B54  19F3               	xorwf	MyusartRead@ch& (0+255),w,b
  2263   000B56  A4D8               	btfss	status,2,c
  2264   000B58  EFB0  F005         	goto	i1u84_21
  2265   000B5C  EFB2  F005         	goto	i1u84_20
  2266   000B60                     i1u84_21:
  2267   000B60  EFBD  F005         	goto	i1l1817
  2268   000B64                     i1u84_20:
  2269   000B64                     i1l1813:
  2270                           
  2271                           ; BSR set to: 0
  2272                           ;setting_hardaware/uart.c: 64:             mystring[lenStr] = '\0';
  2273   000B64  5058               	movf	_lenStr^0,w,c
  2274   000B66  0FD4               	addlw	low _mystring
  2275   000B68  6ED9               	movwf	fsr2l,c
  2276   000B6A  6ADA               	clrf	fsr2h,c
  2277   000B6C  6ADF               	clrf	indf2,c
  2278   000B6E                     
  2279                           ; BSR set to: 0
  2280                           ;setting_hardaware/uart.c: 65:             stringReady = 1;
  2281   000B6E  0E00               	movlw	0
  2282   000B70  6E57               	movwf	(_stringReady+1)^0,c
  2283   000B72  0E01               	movlw	1
  2284   000B74  6E56               	movwf	_stringReady^0,c
  2285                           
  2286                           ;setting_hardaware/uart.c: 66:         }
  2287   000B76  EFC5  F005         	goto	i1l259
  2288   000B7A                     i1l1817:
  2289                           
  2290                           ; BSR set to: 0
  2291                           ;setting_hardaware/uart.c: 68:             mystring[lenStr++] = ch;
  2292   000B7A  5058               	movf	_lenStr^0,w,c
  2293   000B7C  0FD4               	addlw	low _mystring
  2294   000B7E  6ED9               	movwf	fsr2l,c
  2295   000B80  6ADA               	clrf	fsr2h,c
  2296   000B82  C0F3  FFDF         	movff	MyusartRead@ch,indf2
  2297   000B86                     
  2298                           ; BSR set to: 0
  2299   000B86  4A58               	infsnz	_lenStr^0,f,c
  2300   000B88  2A59               	incf	(_lenStr+1)^0,f,c
  2301   000B8A                     i1l259:
  2302   000B8A  0012               	return		;funcret
  2303   000B8C                     __end_of_MyusartRead:
  2304                           	callstack 0
  2305                           
  2306 ;; *************** function _UART_Write *****************
  2307 ;; Defined at:
  2308 ;;		line 42 in file "setting_hardaware/uart.c"
  2309 ;; Parameters:    Size  Location     Type
  2310 ;;  data            1    wreg     unsigned char 
  2311 ;; Auto vars:     Size  Location     Type
  2312 ;;  data            1   10[BANK0 ] unsigned char 
  2313 ;; Return value:  Size  Location     Type
  2314 ;;                  1    wreg      void 
  2315 ;; Registers used:
  2316 ;;		wreg
  2317 ;; Tracked objects:
  2318 ;;		On entry : 0/0
  2319 ;;		On exit  : 0/0
  2320 ;;		Unchanged: 0/0
  2321 ;; Data sizes:     COMRAM   BANK0   BANK1   BANK2   BANK3   BANK4   BANK5
  2322 ;;      Params:         0       0       0       0       0       0       0
  2323 ;;      Locals:         0       1       0       0       0       0       0
  2324 ;;      Temps:          0       0       0       0       0       0       0
  2325 ;;      Totals:         0       1       0       0       0       0       0
  2326 ;;Total ram usage:        1 bytes
  2327 ;; Hardware stack levels used: 1
  2328 ;; Hardware stack levels required when called: 7
  2329 ;; This function calls:
  2330 ;;		Nothing
  2331 ;; This function is called by:
  2332 ;;		_MyusartRead
  2333 ;; This function uses a non-reentrant model
  2334 ;;
  2335                           
  2336                           	psect	text13
  2337   000E1E                     __ptext13:
  2338                           	callstack 0
  2339   000E1E                     _UART_Write:
  2340                           	callstack 19
  2341                           
  2342                           ;incstack = 0
  2343                           ;UART_Write@data stored from wreg
  2344   000E1E  0100               	movlb	0	; () banked
  2345   000E20  6FF2               	movwf	UART_Write@data& (0+255),b
  2346   000E22                     i1l237:
  2347   000E22  A2AC               	btfss	172,1,c	;volatile
  2348   000E24  EF16  F007         	goto	i1u81_21
  2349   000E28  EF18  F007         	goto	i1u81_20
  2350   000E2C                     i1u81_21:
  2351   000E2C  EF11  F007         	goto	i1l237
  2352   000E30                     i1u81_20:
  2353   000E30                     
  2354                           ;setting_hardaware/uart.c: 45:     TXREG = data;
  2355   000E30  C0F2  FFAD         	movff	UART_Write@data,4013	;volatile
  2356   000E34  0012               	return		;funcret
  2357   000E36                     __end_of_UART_Write:
  2358                           	callstack 0
  2359                           
  2360 ;; *************** function _Hi_ISR *****************
  2361 ;; Defined at:
  2362 ;;		line 261 in file "main.c"
  2363 ;; Parameters:    Size  Location     Type
  2364 ;;		None
  2365 ;; Auto vars:     Size  Location     Type
  2366 ;;		None
  2367 ;; Return value:  Size  Location     Type
  2368 ;;                  1    wreg      void 
  2369 ;; Registers used:
  2370 ;;		wreg, fsr0l, fsr0h, fsr1l, fsr1h, fsr2l, fsr2h, status,2, status,0, tblptrl, tblptrh, tblptru, cstack
  2371 ;; Tracked objects:
  2372 ;;		On entry : 0/0
  2373 ;;		On exit  : 0/0
  2374 ;;		Unchanged: 0/0
  2375 ;; Data sizes:     COMRAM   BANK0   BANK1   BANK2   BANK3   BANK4   BANK5
  2376 ;;      Params:         0       0       0       0       0       0       0
  2377 ;;      Locals:         0       0       0       0       0       0       0
  2378 ;;      Temps:          0      10       0       0       0       0       0
  2379 ;;      Totals:         0      10       0       0       0       0       0
  2380 ;;Total ram usage:       10 bytes
  2381 ;; Hardware stack levels used: 1
  2382 ;; Hardware stack levels required when called: 6
  2383 ;; This function calls:
  2384 ;;		_readX
  2385 ;;		_readY
  2386 ;;		i2_adc0Init
  2387 ;;		i2_adc1Init
  2388 ;; This function is called by:
  2389 ;;		Interrupt level 2
  2390 ;; This function uses a non-reentrant model
  2391 ;;
  2392                           
  2393                           	psect	intcode
  2394   000008                     __pintcode:
  2395                           	callstack 0
  2396   000008                     _Hi_ISR:
  2397                           	callstack 19
  2398                           
  2399                           ;incstack = 0
  2400   000008  8277               	bsf	int$flags,1,c	;set compiler interrupt flag (level 2)
  2401   00000A  EDE0  F003         	call	int_func,f	;refresh shadow registers
  2402                           
  2403                           	psect	intcode_body
  2404   0007C0                     __pintcode_body:
  2405                           	callstack 19
  2406   0007C0                     int_func:
  2407                           	callstack 19
  2408   0007C0  0006               	pop		; remove dummy address from shadow register refresh
  2409   0007C2  CFE9 F0E8          	movff	fsr0l,??_Hi_ISR
  2410   0007C6  CFEA F0E9          	movff	fsr0h,??_Hi_ISR+1
  2411   0007CA  CFE1 F0EA          	movff	fsr1l,??_Hi_ISR+2
  2412   0007CE  CFE2 F0EB          	movff	fsr1h,??_Hi_ISR+3
  2413   0007D2  CFD9 F0EC          	movff	fsr2l,??_Hi_ISR+4
  2414   0007D6  CFDA F0ED          	movff	fsr2h,??_Hi_ISR+5
  2415   0007DA  CFF6 F0EE          	movff	tblptrl,??_Hi_ISR+6
  2416   0007DE  CFF7 F0EF          	movff	tblptrh,??_Hi_ISR+7
  2417   0007E2  CFF8 F0F0          	movff	tblptru,??_Hi_ISR+8
  2418   0007E6  CFF5 F0F1          	movff	tablat,??_Hi_ISR+9
  2419   0007EA                     
  2420                           ;main.c: 263:     if(PIR1bits.ADIF){
  2421   0007EA  AC9E               	btfss	158,6,c	;volatile
  2422   0007EC  EFFA  F003         	goto	i2u95_41
  2423   0007F0  EFFC  F003         	goto	i2u95_40
  2424   0007F4                     i2u95_41:
  2425   0007F4  EF2D  F004         	goto	i2l1915
  2426   0007F8                     i2u95_40:
  2427   0007F8                     
  2428                           ;main.c: 267:         if(axis == 0) readX();
  2429   0007F8  505A               	movf	_axis^0,w,c
  2430   0007FA  105B               	iorwf	(_axis+1)^0,w,c
  2431   0007FC  A4D8               	btfss	status,2,c
  2432   0007FE  EF03  F004         	goto	i2u96_41
  2433   000802  EF05  F004         	goto	i2u96_40
  2434   000806                     i2u96_41:
  2435   000806  EF07  F004         	goto	i2l1895
  2436   00080A                     i2u96_40:
  2437   00080A  EC4A  F006         	call	_readX	;wreg free
  2438   00080E                     i2l1895:
  2439                           
  2440                           ;main.c: 268:         if(axis == 1) readY();
  2441   00080E  045A               	decf	_axis^0,w,c
  2442   000810  105B               	iorwf	(_axis+1)^0,w,c
  2443   000812  A4D8               	btfss	status,2,c
  2444   000814  EF0E  F004         	goto	i2u97_41
  2445   000818  EF10  F004         	goto	i2u97_40
  2446   00081C                     i2u97_41:
  2447   00081C  EF12  F004         	goto	i2l1899
  2448   000820                     i2u97_40:
  2449   000820  ECE9  F005         	call	_readY	;wreg free
  2450   000824                     i2l1899:
  2451                           
  2452                           ;main.c: 271:         axis ^= 1;
  2453   000824  0E01               	movlw	1
  2454   000826  1A5A               	xorwf	_axis^0,f,c
  2455   000828                     
  2456                           ;main.c: 273:         if(axis == 0) adc0Init();
  2457   000828  505A               	movf	_axis^0,w,c
  2458   00082A  105B               	iorwf	(_axis+1)^0,w,c
  2459   00082C  A4D8               	btfss	status,2,c
  2460   00082E  EF1B  F004         	goto	i2u98_41
  2461   000832  EF1D  F004         	goto	i2u98_40
  2462   000836                     i2u98_41:
  2463   000836  EF1F  F004         	goto	i2l1905
  2464   00083A                     i2u98_40:
  2465   00083A  ECD4  F006         	call	i2_adc0Init	;wreg free
  2466   00083E                     i2l1905:
  2467                           
  2468                           ;main.c: 274:         if(axis == 1) adc1Init();
  2469   00083E  045A               	decf	_axis^0,w,c
  2470   000840  105B               	iorwf	(_axis+1)^0,w,c
  2471   000842  A4D8               	btfss	status,2,c
  2472   000844  EF26  F004         	goto	i2u99_41
  2473   000848  EF28  F004         	goto	i2u99_40
  2474   00084C                     i2u99_41:
  2475   00084C  EF2A  F004         	goto	i2l1909
  2476   000850                     i2u99_40:
  2477   000850  ECF4  F006         	call	i2_adc1Init	;wreg free
  2478   000854                     i2l1909:
  2479                           
  2480                           ;main.c: 277:         PIR1bits.ADIF = 0;
  2481   000854  9C9E               	bcf	158,6,c	;volatile
  2482   000856                     
  2483                           ;main.c: 279:         _delay((unsigned long)((10)*(1000000/4000000.0)));
  2484   000856  D000               	nop2		;2 cycle nop
  2485   000858                     
  2486                           ;main.c: 280:         ADCON0bits.GO = 1;
  2487   000858  82C2               	bsf	194,1,c	;volatile
  2488   00085A                     i2l1915:
  2489                           
  2490                           ;main.c: 284:     if(PIR1bits.TMR1IF){
  2491   00085A  509E               	movf	158,w,c	;volatile
  2492   00085C  C0F1  FFF5         	movff	??_Hi_ISR+9,tablat
  2493   000860  C0F0  FFF8         	movff	??_Hi_ISR+8,tblptru
  2494   000864  C0EF  FFF7         	movff	??_Hi_ISR+7,tblptrh
  2495   000868  C0EE  FFF6         	movff	??_Hi_ISR+6,tblptrl
  2496   00086C  C0ED  FFDA         	movff	??_Hi_ISR+5,fsr2h
  2497   000870  C0EC  FFD9         	movff	??_Hi_ISR+4,fsr2l
  2498   000874  C0EB  FFE2         	movff	??_Hi_ISR+3,fsr1h
  2499   000878  C0EA  FFE1         	movff	??_Hi_ISR+2,fsr1l
  2500   00087C  C0E9  FFEA         	movff	??_Hi_ISR+1,fsr0h
  2501   000880  C0E8  FFE9         	movff	??_Hi_ISR,fsr0l
  2502   000884  9277               	bcf	int$flags,1,c	;clear compiler interrupt flag (level 2)
  2503   000886  0011               	retfie		f
  2504   000888                     __end_of_Hi_ISR:
  2505                           	callstack 0
  2506                           
  2507 ;; *************** function i2_adc1Init *****************
  2508 ;; Defined at:
  2509 ;;		line 112 in file "main.c"
  2510 ;; Parameters:    Size  Location     Type
  2511 ;;		None
  2512 ;; Auto vars:     Size  Location     Type
  2513 ;;		None
  2514 ;; Return value:  Size  Location     Type
  2515 ;;                  1    wreg      void 
  2516 ;; Registers used:
  2517 ;;		wreg, status,2, cstack
  2518 ;; Tracked objects:
  2519 ;;		On entry : 0/0
  2520 ;;		On exit  : 0/0
  2521 ;;		Unchanged: 0/0
  2522 ;; Data sizes:     COMRAM   BANK0   BANK1   BANK2   BANK3   BANK4   BANK5
  2523 ;;      Params:         0       0       0       0       0       0       0
  2524 ;;      Locals:         0       0       0       0       0       0       0
  2525 ;;      Temps:          0       0       0       0       0       0       0
  2526 ;;      Totals:         0       0       0       0       0       0       0
  2527 ;;Total ram usage:        0 bytes
  2528 ;; Hardware stack levels used: 1
  2529 ;; Hardware stack levels required when called: 1
  2530 ;; This function calls:
  2531 ;;		i2_ANPinReset
  2532 ;; This function is called by:
  2533 ;;		_Hi_ISR
  2534 ;; This function uses a non-reentrant model
  2535 ;;
  2536                           
  2537                           	psect	text15
  2538   000DE8                     __ptext15:
  2539                           	callstack 0
  2540   000DE8                     i2_adc1Init:
  2541                           	callstack 23
  2542   000DE8                     
  2543                           ;main.c: 116:     ANPinReset();
  2544   000DE8  EC31  F007         	call	i2_ANPinReset	;wreg free
  2545   000DEC                     
  2546                           ;main.c: 126:     TRISAbits.RA0 = 1;
  2547   000DEC  8092               	bsf	146,0,c	;volatile
  2548   000DEE                     
  2549                           ;main.c: 128:     TRISAbits.RA1 = 0;
  2550   000DEE  9292               	bcf	146,1,c	;volatile
  2551   000DF0                     
  2552                           ;main.c: 129:     TRISAbits.RA2 = 0;
  2553   000DF0  9492               	bcf	146,2,c	;volatile
  2554   000DF2                     
  2555                           ;main.c: 131:     LATAbits.LATA2 = 0;
  2556   000DF2  9489               	bcf	137,2,c	;volatile
  2557   000DF4                     
  2558                           ;main.c: 132:     LATAbits.LATA1 = 1;
  2559   000DF4  8289               	bsf	137,1,c	;volatile
  2560   000DF6                     
  2561                           ;main.c: 134:     ADCON1bits.PCFG = 0b1110;
  2562   000DF6  50C1               	movf	193,w,c	;volatile
  2563   000DF8  0BF0               	andlw	-16
  2564   000DFA  090E               	iorlw	14
  2565   000DFC  6EC1               	movwf	193,c	;volatile
  2566   000DFE                     
  2567                           ;main.c: 135:     ADCON0bits.CHS = 0b0000;
  2568   000DFE  0EC3               	movlw	-61
  2569   000E00  16C2               	andwf	194,f,c	;volatile
  2570   000E02                     
  2571                           ;main.c: 136:     _delay((unsigned long)((5)*(1000000/4000000.0)));
  2572   000E02  0000               	nop	
  2573   000E04  0012               	return		;funcret
  2574   000E06                     __end_ofi2_adc1Init:
  2575                           	callstack 0
  2576                           
  2577 ;; *************** function i2_adc0Init *****************
  2578 ;; Defined at:
  2579 ;;		line 86 in file "main.c"
  2580 ;; Parameters:    Size  Location     Type
  2581 ;;		None
  2582 ;; Auto vars:     Size  Location     Type
  2583 ;;		None
  2584 ;; Return value:  Size  Location     Type
  2585 ;;                  1    wreg      void 
  2586 ;; Registers used:
  2587 ;;		wreg, status,2, cstack
  2588 ;; Tracked objects:
  2589 ;;		On entry : 0/0
  2590 ;;		On exit  : 0/0
  2591 ;;		Unchanged: 0/0
  2592 ;; Data sizes:     COMRAM   BANK0   BANK1   BANK2   BANK3   BANK4   BANK5
  2593 ;;      Params:         0       0       0       0       0       0       0
  2594 ;;      Locals:         0       0       0       0       0       0       0
  2595 ;;      Temps:          0       0       0       0       0       0       0
  2596 ;;      Totals:         0       0       0       0       0       0       0
  2597 ;;Total ram usage:        0 bytes
  2598 ;; Hardware stack levels used: 1
  2599 ;; Hardware stack levels required when called: 1
  2600 ;; This function calls:
  2601 ;;		i2_ANPinReset
  2602 ;; This function is called by:
  2603 ;;		_Hi_ISR
  2604 ;; This function uses a non-reentrant model
  2605 ;;
  2606                           
  2607                           	psect	text16
  2608   000DA8                     __ptext16:
  2609                           	callstack 0
  2610   000DA8                     i2_adc0Init:
  2611                           	callstack 23
  2612   000DA8                     
  2613                           ;main.c: 89:     ANPinReset();
  2614   000DA8  EC31  F007         	call	i2_ANPinReset	;wreg free
  2615   000DAC                     
  2616                           ;main.c: 99:     TRISAbits.RA2 = 1;
  2617   000DAC  8492               	bsf	146,2,c	;volatile
  2618   000DAE                     
  2619                           ;main.c: 101:     TRISAbits.RA3 = 0;
  2620   000DAE  9692               	bcf	146,3,c	;volatile
  2621   000DB0                     
  2622                           ;main.c: 102:     TRISAbits.RA4 = 0;
  2623   000DB0  9892               	bcf	146,4,c	;volatile
  2624   000DB2                     
  2625                           ;main.c: 104:     LATAbits.LATA3 = 0;
  2626   000DB2  9689               	bcf	137,3,c	;volatile
  2627   000DB4                     
  2628                           ;main.c: 105:     LATAbits.LATA4 = 1;
  2629   000DB4  8889               	bsf	137,4,c	;volatile
  2630   000DB6                     
  2631                           ;main.c: 107:     ADCON1bits.PCFG = 0b1100;
  2632   000DB6  50C1               	movf	193,w,c	;volatile
  2633   000DB8  0BF0               	andlw	-16
  2634   000DBA  090C               	iorlw	12
  2635   000DBC  6EC1               	movwf	193,c	;volatile
  2636   000DBE                     
  2637                           ;main.c: 108:     ADCON0bits.CHS = 0b0010;
  2638   000DBE  50C2               	movf	194,w,c	;volatile
  2639   000DC0  0BC3               	andlw	-61
  2640   000DC2  0908               	iorlw	8
  2641   000DC4  6EC2               	movwf	194,c	;volatile
  2642   000DC6                     
  2643                           ;main.c: 109:     _delay((unsigned long)((5)*(1000000/4000000.0)));
  2644   000DC6  0000               	nop	
  2645   000DC8  0012               	return		;funcret
  2646   000DCA                     __end_ofi2_adc0Init:
  2647                           	callstack 0
  2648                           
  2649 ;; *************** function i2_ANPinReset *****************
  2650 ;; Defined at:
  2651 ;;		line 71 in file "main.c"
  2652 ;; Parameters:    Size  Location     Type
  2653 ;;		None
  2654 ;; Auto vars:     Size  Location     Type
  2655 ;;		None
  2656 ;; Return value:  Size  Location     Type
  2657 ;;                  1    wreg      void 
  2658 ;; Registers used:
  2659 ;;		None
  2660 ;; Tracked objects:
  2661 ;;		On entry : 0/0
  2662 ;;		On exit  : 0/0
  2663 ;;		Unchanged: 0/0
  2664 ;; Data sizes:     COMRAM   BANK0   BANK1   BANK2   BANK3   BANK4   BANK5
  2665 ;;      Params:         0       0       0       0       0       0       0
  2666 ;;      Locals:         0       0       0       0       0       0       0
  2667 ;;      Temps:          0       0       0       0       0       0       0
  2668 ;;      Totals:         0       0       0       0       0       0       0
  2669 ;;Total ram usage:        0 bytes
  2670 ;; Hardware stack levels used: 1
  2671 ;; This function calls:
  2672 ;;		Nothing
  2673 ;; This function is called by:
  2674 ;;		i2_adc0Init
  2675 ;;		i2_adc1Init
  2676 ;; This function uses a non-reentrant model
  2677 ;;
  2678                           
  2679                           	psect	text17
  2680   000E62                     __ptext17:
  2681                           	callstack 0
  2682   000E62                     i2_ANPinReset:
  2683                           	callstack 23
  2684   000E62                     
  2685                           ;main.c: 72:     TRISAbits.RA0 = 1;
  2686   000E62  8092               	bsf	146,0,c	;volatile
  2687                           
  2688                           ;main.c: 73:     TRISAbits.RA1 = 1;
  2689   000E64  8292               	bsf	146,1,c	;volatile
  2690                           
  2691                           ;main.c: 74:     TRISAbits.RA2 = 1;
  2692   000E66  8492               	bsf	146,2,c	;volatile
  2693                           
  2694                           ;main.c: 75:     TRISAbits.RA3 = 1;
  2695   000E68  8692               	bsf	146,3,c	;volatile
  2696                           
  2697                           ;main.c: 76:     TRISAbits.RA4 = 1;
  2698   000E6A  8892               	bsf	146,4,c	;volatile
  2699                           
  2700                           ;main.c: 77:     LATAbits.LATA0 = 0;
  2701   000E6C  9089               	bcf	137,0,c	;volatile
  2702                           
  2703                           ;main.c: 78:     LATAbits.LATA1 = 0;
  2704   000E6E  9289               	bcf	137,1,c	;volatile
  2705                           
  2706                           ;main.c: 79:     LATAbits.LATA2 = 0;
  2707   000E70  9489               	bcf	137,2,c	;volatile
  2708                           
  2709                           ;main.c: 80:     LATAbits.LATA3 = 0;
  2710   000E72  9689               	bcf	137,3,c	;volatile
  2711                           
  2712                           ;main.c: 81:     LATAbits.LATA4 = 0;
  2713   000E74  9889               	bcf	137,4,c	;volatile
  2714   000E76  0012               	return		;funcret
  2715   000E78                     __end_ofi2_ANPinReset:
  2716                           	callstack 0
  2717                           
  2718 ;; *************** function _readY *****************
  2719 ;; Defined at:
  2720 ;;		line 233 in file "main.c"
  2721 ;; Parameters:    Size  Location     Type
  2722 ;;		None
  2723 ;; Auto vars:     Size  Location     Type
  2724 ;;  value          20   43[COMRAM] unsigned char [20]
  2725 ;;  adcRead         2   63[COMRAM] int 
  2726 ;; Return value:  Size  Location     Type
  2727 ;;                  1    wreg      void 
  2728 ;; Registers used:
  2729 ;;		wreg, fsr0l, fsr0h, fsr1l, fsr1h, fsr2l, fsr2h, status,2, status,0, tblptrl, tblptrh, tblptru, cstack
  2730 ;; Tracked objects:
  2731 ;;		On entry : 0/0
  2732 ;;		On exit  : 0/0
  2733 ;;		Unchanged: 0/0
  2734 ;; Data sizes:     COMRAM   BANK0   BANK1   BANK2   BANK3   BANK4   BANK5
  2735 ;;      Params:         0       0       0       0       0       0       0
  2736 ;;      Locals:        22       0       0       0       0       0       0
  2737 ;;      Temps:          2       0       0       0       0       0       0
  2738 ;;      Totals:        24       0       0       0       0       0       0
  2739 ;;Total ram usage:       24 bytes
  2740 ;; Hardware stack levels used: 1
  2741 ;; Hardware stack levels required when called: 5
  2742 ;; This function calls:
  2743 ;;		_UART_Write_Text
  2744 ;;		_sprintf
  2745 ;; This function is called by:
  2746 ;;		_Hi_ISR
  2747 ;; This function uses a non-reentrant model
  2748 ;;
  2749                           
  2750                           	psect	text18
  2751   000BD2                     __ptext18:
  2752                           	callstack 0
  2753   000BD2                     _readY:
  2754                           	callstack 19
  2755   000BD2                     
  2756                           ;main.c: 236:     int adcRead = (ADRESH * 256) | (ADRESL);
  2757   000BD2  50C3               	movf	195,w,c	;volatile
  2758   000BD4  CFC4 F02A          	movff	4036,??_readY	;volatile
  2759   000BD8  6A2B               	clrf	(??_readY+1)^0,c
  2760   000BDA  C02A  F02B         	movff	??_readY,??_readY+1
  2761   000BDE  6A2A               	clrf	??_readY^0,c
  2762   000BE0  102A               	iorwf	??_readY^0,w,c
  2763   000BE2  6E40               	movwf	readY@adcRead^0,c
  2764   000BE4  502B               	movf	(??_readY+1)^0,w,c
  2765   000BE6  6E41               	movwf	(readY@adcRead+1)^0,c
  2766   000BE8                     
  2767                           ;main.c: 249:         char value[20];;main.c: 250:         sprintf(value, "%d", adcRead)
      +                          ;
  2768   000BE8  0E2C               	movlw	low readY@value
  2769   000BEA  6E1A               	movwf	sprintf@s^0,c
  2770   000BEC  0E01               	movlw	low STR_1
  2771   000BEE  6E1B               	movwf	sprintf@fmt^0,c
  2772   000BF0  C040  F01C         	movff	readY@adcRead,?_sprintf+2
  2773   000BF4  C041  F01D         	movff	readY@adcRead+1,?_sprintf+3
  2774   000BF8  EC68  F006         	call	_sprintf	;wreg free
  2775   000BFC                     
  2776                           ;main.c: 253:         UART_Write_Text(value);
  2777   000BFC  0E2C               	movlw	low readY@value
  2778   000BFE  6E02               	movwf	UART_Write_Text@text^0,c
  2779   000C00  6A03               	clrf	(UART_Write_Text@text+1)^0,c
  2780   000C02  EC51  F005         	call	_UART_Write_Text	;wreg free
  2781   000C06                     
  2782                           ;main.c: 254:         UART_Write_Text("\n");
  2783   000C06  0E04               	movlw	low STR_3
  2784   000C08  6E02               	movwf	UART_Write_Text@text^0,c
  2785   000C0A  5002               	movf	UART_Write_Text@text^0,w,c
  2786   000C0C  A4D8               	btfss	status,2,c
  2787   000C0E  0E06               	movlw	high __smallconst
  2788   000C10  6E03               	movwf	(UART_Write_Text@text+1)^0,c
  2789   000C12  EC51  F005         	call	_UART_Write_Text	;wreg free
  2790   000C16  0012               	return		;funcret
  2791   000C18                     __end_of_readY:
  2792                           	callstack 0
  2793                           
  2794 ;; *************** function _readX *****************
  2795 ;; Defined at:
  2796 ;;		line 204 in file "main.c"
  2797 ;; Parameters:    Size  Location     Type
  2798 ;;		None
  2799 ;; Auto vars:     Size  Location     Type
  2800 ;;  value          20   43[COMRAM] unsigned char [20]
  2801 ;;  adcRead         2   63[COMRAM] int 
  2802 ;; Return value:  Size  Location     Type
  2803 ;;                  1    wreg      void 
  2804 ;; Registers used:
  2805 ;;		wreg, fsr0l, fsr0h, fsr1l, fsr1h, fsr2l, fsr2h, status,2, status,0, tblptrl, tblptrh, tblptru, cstack
  2806 ;; Tracked objects:
  2807 ;;		On entry : 0/0
  2808 ;;		On exit  : 0/0
  2809 ;;		Unchanged: 0/0
  2810 ;; Data sizes:     COMRAM   BANK0   BANK1   BANK2   BANK3   BANK4   BANK5
  2811 ;;      Params:         0       0       0       0       0       0       0
  2812 ;;      Locals:        22       0       0       0       0       0       0
  2813 ;;      Temps:          2       0       0       0       0       0       0
  2814 ;;      Totals:        24       0       0       0       0       0       0
  2815 ;;Total ram usage:       24 bytes
  2816 ;; Hardware stack levels used: 1
  2817 ;; Hardware stack levels required when called: 5
  2818 ;; This function calls:
  2819 ;;		_UART_Write_Text
  2820 ;;		_sprintf
  2821 ;;		i2_UART_Write
  2822 ;; This function is called by:
  2823 ;;		_Hi_ISR
  2824 ;; This function uses a non-reentrant model
  2825 ;;
  2826                           
  2827                           	psect	text19
  2828   000C94                     __ptext19:
  2829                           	callstack 0
  2830   000C94                     _readX:
  2831                           	callstack 19
  2832   000C94                     
  2833                           ;main.c: 207:     int adcRead = (ADRESH*256) | (ADRESL);
  2834   000C94  50C3               	movf	195,w,c	;volatile
  2835   000C96  CFC4 F02A          	movff	4036,??_readX	;volatile
  2836   000C9A  6A2B               	clrf	(??_readX+1)^0,c
  2837   000C9C  C02A  F02B         	movff	??_readX,??_readX+1
  2838   000CA0  6A2A               	clrf	??_readX^0,c
  2839   000CA2  102A               	iorwf	??_readX^0,w,c
  2840   000CA4  6E40               	movwf	readX@adcRead^0,c
  2841   000CA6  502B               	movf	(??_readX+1)^0,w,c
  2842   000CA8  6E41               	movwf	(readX@adcRead+1)^0,c
  2843   000CAA                     
  2844                           ;main.c: 222:         char value[20];;main.c: 223:         sprintf(value, "%d", adcRead)
      +                          ;
  2845   000CAA  0E2C               	movlw	low readX@value
  2846   000CAC  6E1A               	movwf	sprintf@s^0,c
  2847   000CAE  0E01               	movlw	low STR_1
  2848   000CB0  6E1B               	movwf	sprintf@fmt^0,c
  2849   000CB2  C040  F01C         	movff	readX@adcRead,?_sprintf+2
  2850   000CB6  C041  F01D         	movff	readX@adcRead+1,?_sprintf+3
  2851   000CBA  EC68  F006         	call	_sprintf	;wreg free
  2852   000CBE                     
  2853                           ;main.c: 226:         UART_Write_Text(value);
  2854   000CBE  0E2C               	movlw	low readX@value
  2855   000CC0  6E02               	movwf	UART_Write_Text@text^0,c
  2856   000CC2  6A03               	clrf	(UART_Write_Text@text+1)^0,c
  2857   000CC4  EC51  F005         	call	_UART_Write_Text	;wreg free
  2858   000CC8                     
  2859                           ;main.c: 227:         UART_Write(',');
  2860   000CC8  0E2C               	movlw	44
  2861   000CCA  EC3C  F007         	call	i2_UART_Write
  2862   000CCE  0012               	return		;funcret
  2863   000CD0                     __end_of_readX:
  2864                           	callstack 0
  2865                           
  2866 ;; *************** function _sprintf *****************
  2867 ;; Defined at:
  2868 ;;		line 9 in file "C:\Program Files\Microchip\xc8\v3.00\pic\sources\c99\common\nf_sprintf.c"
  2869 ;; Parameters:    Size  Location     Type
  2870 ;;  s               1   25[COMRAM] PTR unsigned char 
  2871 ;;		 -> readY@value(20), readX@value(20), 
  2872 ;;  fmt             1   26[COMRAM] PTR const unsigned char 
  2873 ;;		 -> STR_2(3), STR_1(3), 
  2874 ;; Auto vars:     Size  Location     Type
  2875 ;;  f              11   30[COMRAM] struct _IO_FILE
  2876 ;;  ret             2    0        int 
  2877 ;;  ap              1   29[COMRAM] PTR void [1]
  2878 ;;		 -> ?_sprintf(2), 
  2879 ;; Return value:  Size  Location     Type
  2880 ;;                  2   25[COMRAM] int 
  2881 ;; Registers used:
  2882 ;;		wreg, fsr1l, fsr1h, fsr2l, fsr2h, status,2, status,0, tblptrl, tblptrh, tblptru, cstack
  2883 ;; Tracked objects:
  2884 ;;		On entry : 0/0
  2885 ;;		On exit  : 0/0
  2886 ;;		Unchanged: 0/0
  2887 ;; Data sizes:     COMRAM   BANK0   BANK1   BANK2   BANK3   BANK4   BANK5
  2888 ;;      Params:         4       0       0       0       0       0       0
  2889 ;;      Locals:        12       0       0       0       0       0       0
  2890 ;;      Temps:          0       0       0       0       0       0       0
  2891 ;;      Totals:        16       0       0       0       0       0       0
  2892 ;;Total ram usage:       16 bytes
  2893 ;; Hardware stack levels used: 1
  2894 ;; Hardware stack levels required when called: 4
  2895 ;; This function calls:
  2896 ;;		_vfprintf
  2897 ;; This function is called by:
  2898 ;;		_readX
  2899 ;;		_readY
  2900 ;; This function uses a non-reentrant model
  2901 ;;
  2902                           
  2903                           	psect	text20
  2904   000CD0                     __ptext20:
  2905                           	callstack 0
  2906   000CD0                     _sprintf:
  2907                           	callstack 19
  2908   000CD0  0E1C               	movlw	low (?_sprintf+2)
  2909   000CD2  6E1E               	movwf	sprintf@ap^0,c
  2910   000CD4  C01A  F01F         	movff	sprintf@s,sprintf@f
  2911   000CD8  0E00               	movlw	0
  2912   000CDA  6E22               	movwf	(sprintf@f+3)^0,c
  2913   000CDC  0E00               	movlw	0
  2914   000CDE  6E21               	movwf	(sprintf@f+2)^0,c
  2915   000CE0  0E00               	movlw	0
  2916   000CE2  6E29               	movwf	(sprintf@f+10)^0,c
  2917   000CE4  0E00               	movlw	0
  2918   000CE6  6E28               	movwf	(sprintf@f+9)^0,c
  2919   000CE8  0E1F               	movlw	low sprintf@f
  2920   000CEA  6E16               	movwf	vfprintf@fp^0,c
  2921   000CEC  C01B  F017         	movff	sprintf@fmt,vfprintf@fmt
  2922   000CF0  0E1E               	movlw	low sprintf@ap
  2923   000CF2  6E18               	movwf	vfprintf@ap^0,c
  2924   000CF4  EC2B  F006         	call	_vfprintf	;wreg free
  2925   000CF8  501A               	movf	sprintf@s^0,w,c
  2926   000CFA  2421               	addwf	(sprintf@f+2)^0,w,c
  2927   000CFC  6ED9               	movwf	fsr2l,c
  2928   000CFE  6ADA               	clrf	fsr2h,c
  2929   000D00  6ADF               	clrf	indf2,c
  2930   000D02  0012               	return		;funcret
  2931   000D04                     __end_of_sprintf:
  2932                           	callstack 0
  2933                           
  2934 ;; *************** function _vfprintf *****************
  2935 ;; Defined at:
  2936 ;;		line 1817 in file "C:\Program Files\Microchip\xc8\v3.00\pic\sources\c99\common\doprnt.c"
  2937 ;; Parameters:    Size  Location     Type
  2938 ;;  fp              1   21[COMRAM] PTR struct _IO_FILE
  2939 ;;		 -> sprintf@f(11), 
  2940 ;;  fmt             1   22[COMRAM] PTR const unsigned char 
  2941 ;;		 -> STR_2(3), STR_1(3), 
  2942 ;;  ap              1   23[COMRAM] PTR PTR void 
  2943 ;;		 -> sprintf@ap(1), 
  2944 ;; Auto vars:     Size  Location     Type
  2945 ;;  cfmt            1   24[COMRAM] PTR unsigned char 
  2946 ;;		 -> STR_2(3), STR_1(3), 
  2947 ;; Return value:  Size  Location     Type
  2948 ;;                  2   21[COMRAM] int 
  2949 ;; Registers used:
  2950 ;;		wreg, fsr1l, fsr1h, fsr2l, fsr2h, status,2, status,0, tblptrl, tblptrh, tblptru, cstack
  2951 ;; Tracked objects:
  2952 ;;		On entry : 0/0
  2953 ;;		On exit  : 0/0
  2954 ;;		Unchanged: 0/0
  2955 ;; Data sizes:     COMRAM   BANK0   BANK1   BANK2   BANK3   BANK4   BANK5
  2956 ;;      Params:         3       0       0       0       0       0       0
  2957 ;;      Locals:         1       0       0       0       0       0       0
  2958 ;;      Temps:          0       0       0       0       0       0       0
  2959 ;;      Totals:         4       0       0       0       0       0       0
  2960 ;;Total ram usage:        4 bytes
  2961 ;; Hardware stack levels used: 1
  2962 ;; Hardware stack levels required when called: 3
  2963 ;; This function calls:
  2964 ;;		_vfpfcnvrt
  2965 ;; This function is called by:
  2966 ;;		_sprintf
  2967 ;; This function uses a non-reentrant model
  2968 ;;
  2969                           
  2970                           	psect	text21
  2971   000C56                     __ptext21:
  2972                           	callstack 0
  2973   000C56                     _vfprintf:
  2974                           	callstack 19
  2975   000C56                     
  2976                           ;C:\Program Files\Microchip\xc8\v3.00\pic\sources\c99\common\doprnt.c: 1817: int vfprint
      +                          f(FILE *fp, const char *fmt, va_list ap);C:\Program Files\Microchip\xc8\v3.00\pic\source
      +                          s\c99\common\doprnt.c: 1818: {;C:\Program Files\Microchip\xc8\v3.00\pic\sources\c99\comm
      +                          on\doprnt.c: 1820:     char *cfmt;;C:\Program Files\Microchip\xc8\v3.00\pic\sources\c99\
      +                          common\doprnt.c: 1822:     cfmt = (char *)fmt;
  2977   000C56  C017  F019         	movff	vfprintf@fmt,vfprintf@cfmt
  2978                           
  2979                           ;C:\Program Files\Microchip\xc8\v3.00\pic\sources\c99\common\doprnt.c: 1826:     while (
      +                          *cfmt) {
  2980   000C5A  EF37  F006         	goto	i2l1655
  2981   000C5E                     i2l1653:
  2982                           
  2983                           ;C:\Program Files\Microchip\xc8\v3.00\pic\sources\c99\common\doprnt.c: 1830:    vfpfcnvr
      +                          t(fp, &cfmt, ap);
  2984   000C5E  C016  F00B         	movff	vfprintf@fp,vfpfcnvrt@fp
  2985   000C62  0E19               	movlw	low vfprintf@cfmt
  2986   000C64  6E0C               	movwf	vfpfcnvrt@fmt^0,c
  2987   000C66  C018  F00D         	movff	vfprintf@ap,vfpfcnvrt@ap
  2988   000C6A  EC04  F003         	call	_vfpfcnvrt	;wreg free
  2989   000C6E                     i2l1655:
  2990                           
  2991                           ;C:\Program Files\Microchip\xc8\v3.00\pic\sources\c99\common\doprnt.c: 1826:     while (
      +                          *cfmt) {
  2992   000C6E  C019  FFF6         	movff	vfprintf@cfmt,tblptrl
  2993   000C72                     	if	1	;There is more than 1 active tblptr byte
  2994   000C72  0E06               	movlw	high __smallconst
  2995   000C74  6EF7               	movwf	tblptrh,c
  2996   000C76                     	endif
  2997   000C76                     	if	0	;tblptru may be non-zero
  2998   000C76                     	endif
  2999   000C76                     	if	0	;tblptru may be non-zero
  3000   000C76                     	endif
  3001   000C76  0008               	tblrd		*
  3002   000C78  50F5               	movf	tablat,w,c
  3003   000C7A  0900               	iorlw	0
  3004   000C7C  A4D8               	btfss	status,2,c
  3005   000C7E  EF43  F006         	goto	i2u76_41
  3006   000C82  EF45  F006         	goto	i2u76_40
  3007   000C86                     i2u76_41:
  3008   000C86  EF2F  F006         	goto	i2l1653
  3009   000C8A                     i2u76_40:
  3010   000C8A                     
  3011                           ;C:\Program Files\Microchip\xc8\v3.00\pic\sources\c99\common\doprnt.c: 1835:  return 0;
  3012   000C8A  0E00               	movlw	0
  3013   000C8C  6E17               	movwf	(?_vfprintf+1)^0,c
  3014   000C8E  0E00               	movlw	0
  3015   000C90  6E16               	movwf	?_vfprintf^0,c
  3016   000C92  0012               	return		;funcret
  3017   000C94                     __end_of_vfprintf:
  3018                           	callstack 0
  3019                           
  3020 ;; *************** function _vfpfcnvrt *****************
  3021 ;; Defined at:
  3022 ;;		line 1177 in file "C:\Program Files\Microchip\xc8\v3.00\pic\sources\c99\common\doprnt.c"
  3023 ;; Parameters:    Size  Location     Type
  3024 ;;  fp              1   10[COMRAM] PTR struct _IO_FILE
  3025 ;;		 -> sprintf@f(11), 
  3026 ;;  fmt             1   11[COMRAM] PTR PTR unsigned char 
  3027 ;;		 -> vfprintf@cfmt(1), 
  3028 ;;  ap              1   12[COMRAM] PTR PTR void 
  3029 ;;		 -> sprintf@ap(1), 
  3030 ;; Auto vars:     Size  Location     Type
  3031 ;;  convarg         4   16[COMRAM] struct .
  3032 ;;  c               1   20[COMRAM] unsigned char 
  3033 ;;  cp              1   15[COMRAM] PTR unsigned char 
  3034 ;;		 -> STR_2(3), STR_1(3), 
  3035 ;;  done            1   14[COMRAM] _Bool 
  3036 ;; Return value:  Size  Location     Type
  3037 ;;                  1    wreg      void 
  3038 ;; Registers used:
  3039 ;;		wreg, fsr1l, fsr1h, fsr2l, fsr2h, status,2, status,0, tblptrl, tblptrh, tblptru, cstack
  3040 ;; Tracked objects:
  3041 ;;		On entry : 0/0
  3042 ;;		On exit  : 0/0
  3043 ;;		Unchanged: 0/0
  3044 ;; Data sizes:     COMRAM   BANK0   BANK1   BANK2   BANK3   BANK4   BANK5
  3045 ;;      Params:         3       0       0       0       0       0       0
  3046 ;;      Locals:         7       0       0       0       0       0       0
  3047 ;;      Temps:          1       0       0       0       0       0       0
  3048 ;;      Totals:        11       0       0       0       0       0       0
  3049 ;;Total ram usage:       11 bytes
  3050 ;; Hardware stack levels used: 1
  3051 ;; Hardware stack levels required when called: 2
  3052 ;; This function calls:
  3053 ;;		___awdiv
  3054 ;;		___awmod
  3055 ;;		_abs
  3056 ;;		_fputc
  3057 ;; This function is called by:
  3058 ;;		_vfprintf
  3059 ;; This function uses a non-reentrant model
  3060 ;;
  3061                           
  3062                           	psect	text22
  3063   000608                     __ptext22:
  3064                           	callstack 0
  3065   000608                     _vfpfcnvrt:
  3066                           	callstack 19
  3067   000608                     
  3068                           ;C:\Program Files\Microchip\xc8\v3.00\pic\sources\c99\common\doprnt.c: 1177: vfpfcnvrt(F
      +                          ILE *fp, char *fmt[], va_list ap);C:\Program Files\Microchip\xc8\v3.00\pic\sources\c99\c
      +                          ommon\doprnt.c: 1178: {;C:\Program Files\Microchip\xc8\v3.00\pic\sources\c99\common\dopr
      +                          nt.c: 1179:     char c, *cp;;C:\Program Files\Microchip\xc8\v3.00\pic\sources\c99\common
      +                          \doprnt.c: 1180:     _Bool done;;C:\Program Files\Microchip\xc8\v3.00\pic\sources\c99\co
      +                          mmon\doprnt.c: 1188:  } convarg;;C:\Program Files\Microchip\xc8\v3.00\pic\sources\c99\co
      +                          mmon\doprnt.c: 1201:     if ((*fmt)[0] == '%') {
  3069   000608  500C               	movf	vfpfcnvrt@fmt^0,w,c
  3070   00060A  6ED9               	movwf	fsr2l,c
  3071   00060C  6ADA               	clrf	fsr2h,c
  3072   00060E  CFDF FFF6          	movff	indf2,tblptrl
  3073   000612                     	if	1	;There is more than 1 active tblptr byte
  3074   000612  0E06               	movlw	high __smallconst
  3075   000614  6EF7               	movwf	tblptrh,c
  3076   000616                     	endif
  3077   000616                     	if	0	;tblptru may be non-zero
  3078   000616                     	endif
  3079   000616                     	if	0	;tblptru may be non-zero
  3080   000616                     	endif
  3081   000616  0008               	tblrd		*
  3082   000618  50F5               	movf	tablat,w,c
  3083   00061A  0A25               	xorlw	37
  3084   00061C  A4D8               	btfss	status,2,c
  3085   00061E  EF13  F003         	goto	i2u66_41
  3086   000622  EF15  F003         	goto	i2u66_40
  3087   000626                     i2u66_41:
  3088   000626  EFCE  F003         	goto	i2l1645
  3089   00062A                     i2u66_40:
  3090   00062A                     
  3091                           ;C:\Program Files\Microchip\xc8\v3.00\pic\sources\c99\common\doprnt.c: 1202:         ++*
      +                          fmt;
  3092   00062A  500C               	movf	vfpfcnvrt@fmt^0,w,c
  3093   00062C  6ED9               	movwf	fsr2l,c
  3094   00062E  6ADA               	clrf	fsr2h,c
  3095   000630  2ADF               	incf	indf2,f,c
  3096   000632                     
  3097                           ;C:\Program Files\Microchip\xc8\v3.00\pic\sources\c99\common\doprnt.c: 1204:         fla
      +                          gs = width = 0;
  3098   000632  0E00               	movlw	0
  3099   000634  6E53               	movwf	(_width+1)^0,c
  3100   000636  0E00               	movlw	0
  3101   000638  6E52               	movwf	_width^0,c
  3102   00063A  C052  F05E         	movff	_width,_flags
  3103   00063E                     
  3104                           ;C:\Program Files\Microchip\xc8\v3.00\pic\sources\c99\common\doprnt.c: 1205:         pre
      +                          c = -1;
  3105   00063E  6854               	setf	_prec^0,c
  3106   000640  6855               	setf	(_prec+1)^0,c
  3107   000642                     
  3108                           ;C:\Program Files\Microchip\xc8\v3.00\pic\sources\c99\common\doprnt.c: 1291:   cp = *fmt
      +                          ;
  3109   000642  500C               	movf	vfpfcnvrt@fmt^0,w,c
  3110   000644  6ED9               	movwf	fsr2l,c
  3111   000646  6ADA               	clrf	fsr2h,c
  3112   000648  50DF               	movf	indf2,w,c
  3113   00064A  6E10               	movwf	vfpfcnvrt@cp^0,c
  3114   00064C                     
  3115                           ;C:\Program Files\Microchip\xc8\v3.00\pic\sources\c99\common\doprnt.c: 1361:   if (*cp =
      +                          = 'd' || *cp == 'i') {
  3116   00064C  C010  FFF6         	movff	vfpfcnvrt@cp,tblptrl
  3117   000650                     	if	1	;There is more than 1 active tblptr byte
  3118   000650  0E06               	movlw	high __smallconst
  3119   000652  6EF7               	movwf	tblptrh,c
  3120   000654                     	endif
  3121   000654                     	if	0	;tblptru may be non-zero
  3122   000654                     	endif
  3123   000654                     	if	0	;tblptru may be non-zero
  3124   000654                     	endif
  3125   000654  0008               	tblrd		*
  3126   000656  50F5               	movf	tablat,w,c
  3127   000658  0A64               	xorlw	100
  3128   00065A  B4D8               	btfsc	status,2,c
  3129   00065C  EF32  F003         	goto	i2u67_41
  3130   000660  EF34  F003         	goto	i2u67_40
  3131   000664                     i2u67_41:
  3132   000664  EF42  F003         	goto	i2l1615
  3133   000668                     i2u67_40:
  3134   000668  C010  FFF6         	movff	vfpfcnvrt@cp,tblptrl
  3135   00066C                     	if	1	;There is more than 1 active tblptr byte
  3136   00066C  0E06               	movlw	high __smallconst
  3137   00066E  6EF7               	movwf	tblptrh,c
  3138   000670                     	endif
  3139   000670                     	if	0	;tblptru may be non-zero
  3140   000670                     	endif
  3141   000670                     	if	0	;tblptru may be non-zero
  3142   000670                     	endif
  3143   000670  0008               	tblrd		*
  3144   000672  50F5               	movf	tablat,w,c
  3145   000674  0A69               	xorlw	105
  3146   000676  A4D8               	btfss	status,2,c
  3147   000678  EF40  F003         	goto	i2u68_41
  3148   00067C  EF42  F003         	goto	i2u68_40
  3149   000680                     i2u68_41:
  3150   000680  EFC8  F003         	goto	i2l1641
  3151   000684                     i2u68_40:
  3152   000684                     i2l1615:
  3153                           
  3154                           ;C:\Program Files\Microchip\xc8\v3.00\pic\sources\c99\common\doprnt.c: 1404:    convarg.
      +                          sint = (vfpf_sint_t)(int)(*(int *)__va_arg(*(int **)ap, (int)0));
  3155   000684  500D               	movf	vfpfcnvrt@ap^0,w,c
  3156   000686  6ED9               	movwf	fsr2l,c
  3157   000688  6ADA               	clrf	fsr2h,c
  3158   00068A  0E02               	movlw	2
  3159   00068C  26DF               	addwf	indf2,f,c
  3160   00068E  5CDF               	subwf	indf2,w,c
  3161   000690  6ED9               	movwf	fsr2l,c
  3162   000692  6ADA               	clrf	fsr2h,c
  3163   000694  CFDE F011          	movff	postinc2,vfpfcnvrt@convarg
  3164   000698  CFDE F012          	movff	postinc2,vfpfcnvrt@convarg+1
  3165   00069C                     
  3166                           ;C:\Program Files\Microchip\xc8\v3.00\pic\sources\c99\common\doprnt.c: 1406:    *fmt = c
      +                          p+1;
  3167   00069C  500C               	movf	vfpfcnvrt@fmt^0,w,c
  3168   00069E  6ED9               	movwf	fsr2l,c
  3169   0006A0  6ADA               	clrf	fsr2h,c
  3170   0006A2  2810               	incf	vfpfcnvrt@cp^0,w,c
  3171   0006A4  6EDF               	movwf	indf2,c
  3172   0006A6                     
  3173                           ;C:\Program Files\Microchip\xc8\v3.00\pic\sources\c99\common\doprnt.c: 1408:    c = size
      +                          of(dbuf);
  3174   0006A6  0E20               	movlw	32
  3175   0006A8  6E15               	movwf	vfpfcnvrt@c^0,c
  3176                           
  3177                           ;C:\Program Files\Microchip\xc8\v3.00\pic\sources\c99\common\doprnt.c: 1409:    done = c
      +                          onvarg.sint < 0;
  3178   0006AA  BE12               	btfsc	(vfpfcnvrt@convarg+1)^0,7,c
  3179   0006AC  EF5A  F003         	goto	i2u69_41
  3180   0006B0  EF5D  F003         	goto	i2u69_40
  3181   0006B4                     i2u69_41:
  3182   0006B4  0E01               	movlw	1
  3183   0006B6  EF5E  F003         	goto	i2u70_40
  3184   0006BA                     i2u69_40:
  3185   0006BA  0E00               	movlw	0
  3186   0006BC                     i2u70_40:
  3187   0006BC  6E0F               	movwf	vfpfcnvrt@done^0,c
  3188   0006BE                     i2l1621:
  3189                           
  3190                           ;C:\Program Files\Microchip\xc8\v3.00\pic\sources\c99\common\doprnt.c: 1411:     dbuf[--
      +                          c] = abs(convarg.sint % 10) + '0';
  3191   0006BE  0615               	decf	vfpfcnvrt@c^0,f,c
  3192   0006C0  5015               	movf	vfpfcnvrt@c^0,w,c
  3193   0006C2  0F80               	addlw	low _dbuf
  3194   0006C4  6ED9               	movwf	fsr2l,c
  3195   0006C6  6ADA               	clrf	fsr2h,c
  3196   0006C8  C011  F001         	movff	vfpfcnvrt@convarg,___awmod@dividend
  3197   0006CC  C012  F002         	movff	vfpfcnvrt@convarg+1,___awmod@dividend+1
  3198   0006D0  0E00               	movlw	0
  3199   0006D2  6E04               	movwf	(___awmod@divisor+1)^0,c
  3200   0006D4  0E0A               	movlw	10
  3201   0006D6  6E03               	movwf	___awmod@divisor^0,c
  3202   0006D8  ECA5  F004         	call	___awmod	;wreg free
  3203   0006DC  C001  F007         	movff	?___awmod,abs@a
  3204   0006E0  C002  F008         	movff	?___awmod+1,abs@a+1
  3205   0006E4  EC82  F006         	call	_abs	;wreg free
  3206   0006E8  5007               	movf	?_abs^0,w,c
  3207   0006EA  0F30               	addlw	48
  3208   0006EC  6EDF               	movwf	indf2,c
  3209   0006EE                     
  3210                           ;C:\Program Files\Microchip\xc8\v3.00\pic\sources\c99\common\doprnt.c: 1412:     convarg
      +                          .sint /= 10;
  3211   0006EE  C011  F001         	movff	vfpfcnvrt@convarg,___awdiv@dividend
  3212   0006F2  C012  F002         	movff	vfpfcnvrt@convarg+1,___awdiv@dividend+1
  3213   0006F6  0E00               	movlw	0
  3214   0006F8  6E04               	movwf	(___awdiv@divisor+1)^0,c
  3215   0006FA  0E0A               	movlw	10
  3216   0006FC  6E03               	movwf	___awdiv@divisor^0,c
  3217   0006FE  EC44  F004         	call	___awdiv	;wreg free
  3218   000702  C001  F011         	movff	?___awdiv,vfpfcnvrt@convarg
  3219   000706  C002  F012         	movff	?___awdiv+1,vfpfcnvrt@convarg+1
  3220   00070A                     
  3221                           ;C:\Program Files\Microchip\xc8\v3.00\pic\sources\c99\common\doprnt.c: 1416:    } while 
      +                          (convarg.sint != 0 && c != 0);
  3222   00070A  5011               	movf	vfpfcnvrt@convarg^0,w,c
  3223   00070C  1012               	iorwf	(vfpfcnvrt@convarg+1)^0,w,c
  3224   00070E  B4D8               	btfsc	status,2,c
  3225   000710  EF8C  F003         	goto	i2u71_41
  3226   000714  EF8E  F003         	goto	i2u71_40
  3227   000718                     i2u71_41:
  3228   000718  EF96  F003         	goto	i2l1629
  3229   00071C                     i2u71_40:
  3230   00071C  5015               	movf	vfpfcnvrt@c^0,w,c
  3231   00071E  A4D8               	btfss	status,2,c
  3232   000720  EF94  F003         	goto	i2u72_41
  3233   000724  EF96  F003         	goto	i2u72_40
  3234   000728                     i2u72_41:
  3235   000728  EF5F  F003         	goto	i2l1621
  3236   00072C                     i2u72_40:
  3237   00072C                     i2l1629:
  3238                           
  3239                           ;C:\Program Files\Microchip\xc8\v3.00\pic\sources\c99\common\doprnt.c: 1417:    if (c !=
      +                           0 && done) {
  3240   00072C  5015               	movf	vfpfcnvrt@c^0,w,c
  3241   00072E  B4D8               	btfsc	status,2,c
  3242   000730  EF9C  F003         	goto	i2u73_41
  3243   000734  EF9E  F003         	goto	i2u73_40
  3244   000738                     i2u73_41:
  3245   000738  EFBD  F003         	goto	i2l1639
  3246   00073C                     i2u73_40:
  3247   00073C  500F               	movf	vfpfcnvrt@done^0,w,c
  3248   00073E  B4D8               	btfsc	status,2,c
  3249   000740  EFA4  F003         	goto	i2u74_41
  3250   000744  EFA6  F003         	goto	i2u74_40
  3251   000748                     i2u74_41:
  3252   000748  EFBD  F003         	goto	i2l1639
  3253   00074C                     i2u74_40:
  3254   00074C                     
  3255                           ;C:\Program Files\Microchip\xc8\v3.00\pic\sources\c99\common\doprnt.c: 1418:     dbuf[--
      +                          c] = '-';
  3256   00074C  0615               	decf	vfpfcnvrt@c^0,f,c
  3257   00074E  5015               	movf	vfpfcnvrt@c^0,w,c
  3258   000750  0F80               	addlw	low _dbuf
  3259   000752  6ED9               	movwf	fsr2l,c
  3260   000754  6ADA               	clrf	fsr2h,c
  3261   000756  0E2D               	movlw	45
  3262   000758  6EDF               	movwf	indf2,c
  3263   00075A  EFBD  F003         	goto	i2l1639
  3264   00075E                     i2l1635:
  3265                           
  3266                           ;C:\Program Files\Microchip\xc8\v3.00\pic\sources\c99\common\doprnt.c: 1424:     fputc(d
      +                          buf[c++], fp);
  3267   00075E  5015               	movf	vfpfcnvrt@c^0,w,c
  3268   000760  0F80               	addlw	low _dbuf
  3269   000762  6ED9               	movwf	fsr2l,c
  3270   000764  6ADA               	clrf	fsr2h,c
  3271   000766  50DF               	movf	indf2,w,c
  3272   000768  6E0E               	movwf	??_vfpfcnvrt^0,c
  3273   00076A  500E               	movf	??_vfpfcnvrt^0,w,c
  3274   00076C  6E01               	movwf	fputc@c^0,c
  3275   00076E  6A02               	clrf	(fputc@c+1)^0,c
  3276   000770  C00B  F003         	movff	vfpfcnvrt@fp,fputc@fp
  3277   000774  ECFC  F004         	call	_fputc	;wreg free
  3278   000778  2A15               	incf	vfpfcnvrt@c^0,f,c
  3279   00077A                     i2l1639:
  3280                           
  3281                           ;C:\Program Files\Microchip\xc8\v3.00\pic\sources\c99\common\doprnt.c: 1423:    while (c
      +                           != sizeof(dbuf)) {
  3282   00077A  0E20               	movlw	32
  3283   00077C  1815               	xorwf	vfpfcnvrt@c^0,w,c
  3284   00077E  A4D8               	btfss	status,2,c
  3285   000780  EFC4  F003         	goto	i2u75_41
  3286   000784  EFC6  F003         	goto	i2u75_40
  3287   000788                     i2u75_41:
  3288   000788  EFAF  F003         	goto	i2l1635
  3289   00078C                     i2u75_40:
  3290   00078C  EFDF  F003         	goto	i2l991
  3291   000790                     i2l1641:
  3292                           
  3293                           ;C:\Program Files\Microchip\xc8\v3.00\pic\sources\c99\common\doprnt.c: 1806:         ++*
      +                          fmt;
  3294   000790  500C               	movf	vfpfcnvrt@fmt^0,w,c
  3295   000792  6ED9               	movwf	fsr2l,c
  3296   000794  6ADA               	clrf	fsr2h,c
  3297   000796  2ADF               	incf	indf2,f,c
  3298   000798  EFDF  F003         	goto	i2l991
  3299   00079C                     i2l1645:
  3300                           
  3301                           ;C:\Program Files\Microchip\xc8\v3.00\pic\sources\c99\common\doprnt.c: 1811:     fputc((
      +                          int)(*fmt)[0], fp);
  3302   00079C  500C               	movf	vfpfcnvrt@fmt^0,w,c
  3303   00079E  6ED9               	movwf	fsr2l,c
  3304   0007A0  6ADA               	clrf	fsr2h,c
  3305   0007A2  CFDF FFF6          	movff	indf2,tblptrl
  3306   0007A6                     	if	1	;There is more than 1 active tblptr byte
  3307   0007A6  0E06               	movlw	high __smallconst
  3308   0007A8  6EF7               	movwf	tblptrh,c
  3309   0007AA                     	endif
  3310   0007AA                     	if	0	;tblptru may be non-zero
  3311   0007AA                     	endif
  3312   0007AA                     	if	0	;tblptru may be non-zero
  3313   0007AA                     	endif
  3314   0007AA  0008               	tblrd		*
  3315   0007AC  50F5               	movf	tablat,w,c
  3316   0007AE  6E01               	movwf	fputc@c^0,c
  3317   0007B0  6A02               	clrf	(fputc@c+1)^0,c
  3318   0007B2  C00B  F003         	movff	vfpfcnvrt@fp,fputc@fp
  3319   0007B6  ECFC  F004         	call	_fputc	;wreg free
  3320   0007BA  EFC8  F003         	goto	i2l1641
  3321   0007BE                     i2l991:
  3322   0007BE  0012               	return		;funcret
  3323   0007C0                     __end_of_vfpfcnvrt:
  3324                           	callstack 0
  3325                           
  3326 ;; *************** function _fputc *****************
  3327 ;; Defined at:
  3328 ;;		line 8 in file "C:\Program Files\Microchip\xc8\v3.00\pic\sources\c99\common\nf_fputc.c"
  3329 ;; Parameters:    Size  Location     Type
  3330 ;;  c               2    0[COMRAM] int 
  3331 ;;  fp              1    2[COMRAM] PTR struct _IO_FILE
  3332 ;;		 -> sprintf@f(11), 
  3333 ;; Auto vars:     Size  Location     Type
  3334 ;;		None
  3335 ;; Return value:  Size  Location     Type
  3336 ;;                  2    0[COMRAM] int 
  3337 ;; Registers used:
  3338 ;;		wreg, fsr1l, fsr1h, fsr2l, fsr2h, status,2, status,0, cstack
  3339 ;; Tracked objects:
  3340 ;;		On entry : 0/0
  3341 ;;		On exit  : 0/0
  3342 ;;		Unchanged: 0/0
  3343 ;; Data sizes:     COMRAM   BANK0   BANK1   BANK2   BANK3   BANK4   BANK5
  3344 ;;      Params:         3       0       0       0       0       0       0
  3345 ;;      Locals:         0       0       0       0       0       0       0
  3346 ;;      Temps:          5       0       0       0       0       0       0
  3347 ;;      Totals:         8       0       0       0       0       0       0
  3348 ;;Total ram usage:        8 bytes
  3349 ;; Hardware stack levels used: 1
  3350 ;; Hardware stack levels required when called: 1
  3351 ;; This function calls:
  3352 ;;		_putch
  3353 ;; This function is called by:
  3354 ;;		_vfpfcnvrt
  3355 ;; This function uses a non-reentrant model
  3356 ;;
  3357                           
  3358                           	psect	text23
  3359   0009F8                     __ptext23:
  3360                           	callstack 0
  3361   0009F8                     _fputc:
  3362                           	callstack 19
  3363   0009F8  5003               	movf	fputc@fp^0,w,c
  3364   0009FA  B4D8               	btfsc	status,2,c
  3365   0009FC  EF02  F005         	goto	i2u61_41
  3366   000A00  EF04  F005         	goto	i2u61_40
  3367   000A04                     i2u61_41:
  3368   000A04  EF0C  F005         	goto	i2l1587
  3369   000A08                     i2u61_40:
  3370   000A08  5003               	movf	fputc@fp^0,w,c
  3371   000A0A  A4D8               	btfss	status,2,c
  3372   000A0C  EF0A  F005         	goto	i2u62_41
  3373   000A10  EF0C  F005         	goto	i2u62_40
  3374   000A14                     i2u62_41:
  3375   000A14  EF11  F005         	goto	i2l1589
  3376   000A18                     i2u62_40:
  3377   000A18                     i2l1587:
  3378   000A18  5001               	movf	fputc@c^0,w,c
  3379   000A1A  EC62  F007         	call	_putch
  3380   000A1E  EF50  F005         	goto	i2l1016
  3381   000A22                     i2l1589:
  3382   000A22  5003               	movf	fputc@fp^0,w,c
  3383   000A24  6ED9               	movwf	fsr2l,c
  3384   000A26  6ADA               	clrf	fsr2h,c
  3385   000A28  0E09               	movlw	9
  3386   000A2A  26D9               	addwf	fsr2l,f,c
  3387   000A2C  50DE               	movf	postinc2,w,c
  3388   000A2E  10DE               	iorwf	postinc2,w,c
  3389   000A30  B4D8               	btfsc	status,2,c
  3390   000A32  EF1D  F005         	goto	i2u63_41
  3391   000A36  EF1F  F005         	goto	i2u63_40
  3392   000A3A                     i2u63_41:
  3393   000A3A  EF38  F005         	goto	i2l1593
  3394   000A3E                     i2u63_40:
  3395   000A3E  5003               	movf	fputc@fp^0,w,c
  3396   000A40  6ED9               	movwf	fsr2l,c
  3397   000A42  6ADA               	clrf	fsr2h,c
  3398   000A44  0E09               	movlw	9
  3399   000A46  26D9               	addwf	fsr2l,f,c
  3400   000A48  5003               	movf	fputc@fp^0,w,c
  3401   000A4A  6EE1               	movwf	fsr1l,c
  3402   000A4C  6AE2               	clrf	fsr1h,c
  3403   000A4E  0E02               	movlw	2
  3404   000A50  26E1               	addwf	fsr1l,f,c
  3405   000A52  50DE               	movf	postinc2,w,c
  3406   000A54  5CE6               	subwf	postinc1,w,c
  3407   000A56  50E6               	movf	postinc1,w,c
  3408   000A58  0A80               	xorlw	128
  3409   000A5A  6E08               	movwf	(??_fputc+4)^0,c
  3410   000A5C  50DE               	movf	postinc2,w,c
  3411   000A5E  0A80               	xorlw	128
  3412   000A60  5808               	subwfb	(??_fputc+4)^0,w,c
  3413   000A62  B0D8               	btfsc	status,0,c
  3414   000A64  EF36  F005         	goto	i2u64_41
  3415   000A68  EF38  F005         	goto	i2u64_40
  3416   000A6C                     i2u64_41:
  3417   000A6C  EF50  F005         	goto	i2l1016
  3418   000A70                     i2u64_40:
  3419   000A70                     i2l1593:
  3420   000A70  5003               	movf	fputc@fp^0,w,c
  3421   000A72  6ED9               	movwf	fsr2l,c
  3422   000A74  6ADA               	clrf	fsr2h,c
  3423   000A76  0E02               	movlw	2
  3424   000A78  26D9               	addwf	fsr2l,f,c
  3425   000A7A  50DF               	movf	indf2,w,c
  3426   000A7C  6E04               	movwf	??_fputc^0,c
  3427   000A7E  5003               	movf	fputc@fp^0,w,c
  3428   000A80  6ED9               	movwf	fsr2l,c
  3429   000A82  6ADA               	clrf	fsr2h,c
  3430   000A84  50DF               	movf	indf2,w,c
  3431   000A86  2404               	addwf	??_fputc^0,w,c
  3432   000A88  6ED9               	movwf	fsr2l,c
  3433   000A8A  6ADA               	clrf	fsr2h,c
  3434   000A8C  C001  FFDF         	movff	fputc@c,indf2
  3435   000A90  5003               	movf	fputc@fp^0,w,c
  3436   000A92  6ED9               	movwf	fsr2l,c
  3437   000A94  6ADA               	clrf	fsr2h,c
  3438   000A96  0E02               	movlw	2
  3439   000A98  26D9               	addwf	fsr2l,f,c
  3440   000A9A  2ADE               	incf	postinc2,f,c
  3441   000A9C  0E00               	movlw	0
  3442   000A9E  22DD               	addwfc	postdec2,f,c
  3443   000AA0                     i2l1016:
  3444   000AA0  0012               	return		;funcret
  3445   000AA2                     __end_of_fputc:
  3446                           	callstack 0
  3447                           
  3448 ;; *************** function _putch *****************
  3449 ;; Defined at:
  3450 ;;		line 7 in file "C:\Program Files\Microchip\xc8\v3.00\pic\sources\c99\common\putch.c"
  3451 ;; Parameters:    Size  Location     Type
  3452 ;;  c               1    wreg     unsigned char 
  3453 ;; Auto vars:     Size  Location     Type
  3454 ;;  c               1    0[COMRAM] unsigned char 
  3455 ;; Return value:  Size  Location     Type
  3456 ;;                  1    wreg      void 
  3457 ;; Registers used:
  3458 ;;		wreg
  3459 ;; Tracked objects:
  3460 ;;		On entry : 0/0
  3461 ;;		On exit  : 0/0
  3462 ;;		Unchanged: 0/0
  3463 ;; Data sizes:     COMRAM   BANK0   BANK1   BANK2   BANK3   BANK4   BANK5
  3464 ;;      Params:         0       0       0       0       0       0       0
  3465 ;;      Locals:         0       0       0       0       0       0       0
  3466 ;;      Temps:          0       0       0       0       0       0       0
  3467 ;;      Totals:         0       0       0       0       0       0       0
  3468 ;;Total ram usage:        0 bytes
  3469 ;; Hardware stack levels used: 1
  3470 ;; This function calls:
  3471 ;;		Nothing
  3472 ;; This function is called by:
  3473 ;;		_fputc
  3474 ;; This function uses a non-reentrant model
  3475 ;;
  3476                           
  3477                           	psect	text24
  3478   000EC4                     __ptext24:
  3479                           	callstack 0
  3480   000EC4                     _putch:
  3481                           	callstack 19
  3482   000EC4  0012               	return		;funcret
  3483   000EC6                     __end_of_putch:
  3484                           	callstack 0
  3485                           
  3486 ;; *************** function _abs *****************
  3487 ;; Defined at:
  3488 ;;		line 1 in file "C:\Program Files\Microchip\xc8\v3.00\pic\sources\c99\common\abs.c"
  3489 ;; Parameters:    Size  Location     Type
  3490 ;;  a               2    6[COMRAM] int 
  3491 ;; Auto vars:     Size  Location     Type
  3492 ;;		None
  3493 ;; Return value:  Size  Location     Type
  3494 ;;                  2    6[COMRAM] int 
  3495 ;; Registers used:
  3496 ;;		wreg, status,2, status,0
  3497 ;; Tracked objects:
  3498 ;;		On entry : 0/0
  3499 ;;		On exit  : 0/0
  3500 ;;		Unchanged: 0/0
  3501 ;; Data sizes:     COMRAM   BANK0   BANK1   BANK2   BANK3   BANK4   BANK5
  3502 ;;      Params:         2       0       0       0       0       0       0
  3503 ;;      Locals:         0       0       0       0       0       0       0
  3504 ;;      Temps:          2       0       0       0       0       0       0
  3505 ;;      Totals:         4       0       0       0       0       0       0
  3506 ;;Total ram usage:        4 bytes
  3507 ;; Hardware stack levels used: 1
  3508 ;; This function calls:
  3509 ;;		Nothing
  3510 ;; This function is called by:
  3511 ;;		_vfpfcnvrt
  3512 ;; This function uses a non-reentrant model
  3513 ;;
  3514                           
  3515                           	psect	text25
  3516   000D04                     __ptext25:
  3517                           	callstack 0
  3518   000D04                     _abs:
  3519                           	callstack 20
  3520   000D04  BE08               	btfsc	(abs@a+1)^0,7,c
  3521   000D06  EF87  F006         	goto	i2u65_41
  3522   000D0A  EF89  F006         	goto	i2u65_40
  3523   000D0E                     i2u65_41:
  3524   000D0E  EF8F  F006         	goto	i2l1001
  3525   000D12                     i2u65_40:
  3526   000D12  C007  F007         	movff	abs@a,?_abs
  3527   000D16  C008  F008         	movff	abs@a+1,?_abs+1
  3528   000D1A  EF9B  F006         	goto	i2l1004
  3529   000D1E                     i2l1001:
  3530   000D1E  C007  F009         	movff	abs@a,??_abs
  3531   000D22  C008  F00A         	movff	abs@a+1,??_abs+1
  3532   000D26  1E09               	comf	??_abs^0,f,c
  3533   000D28  1E0A               	comf	(??_abs+1)^0,f,c
  3534   000D2A  4A09               	infsnz	??_abs^0,f,c
  3535   000D2C  2A0A               	incf	(??_abs+1)^0,f,c
  3536   000D2E  C009  F007         	movff	??_abs,?_abs
  3537   000D32  C00A  F008         	movff	??_abs+1,?_abs+1
  3538   000D36                     i2l1004:
  3539   000D36  0012               	return		;funcret
  3540   000D38                     __end_of_abs:
  3541                           	callstack 0
  3542                           
  3543 ;; *************** function ___awmod *****************
  3544 ;; Defined at:
  3545 ;;		line 7 in file "C:\Program Files\Microchip\xc8\v3.00\pic\sources\c99\common\awmod.c"
  3546 ;; Parameters:    Size  Location     Type
  3547 ;;  dividend        2    0[COMRAM] int 
  3548 ;;  divisor         2    2[COMRAM] int 
  3549 ;; Auto vars:     Size  Location     Type
  3550 ;;  sign            1    5[COMRAM] unsigned char 
  3551 ;;  counter         1    4[COMRAM] unsigned char 
  3552 ;; Return value:  Size  Location     Type
  3553 ;;                  2    0[COMRAM] int 
  3554 ;; Registers used:
  3555 ;;		wreg, status,2, status,0
  3556 ;; Tracked objects:
  3557 ;;		On entry : 0/0
  3558 ;;		On exit  : 0/0
  3559 ;;		Unchanged: 0/0
  3560 ;; Data sizes:     COMRAM   BANK0   BANK1   BANK2   BANK3   BANK4   BANK5
  3561 ;;      Params:         4       0       0       0       0       0       0
  3562 ;;      Locals:         2       0       0       0       0       0       0
  3563 ;;      Temps:          0       0       0       0       0       0       0
  3564 ;;      Totals:         6       0       0       0       0       0       0
  3565 ;;Total ram usage:        6 bytes
  3566 ;; Hardware stack levels used: 1
  3567 ;; This function calls:
  3568 ;;		Nothing
  3569 ;; This function is called by:
  3570 ;;		_vfpfcnvrt
  3571 ;; This function uses a non-reentrant model
  3572 ;;
  3573                           
  3574                           	psect	text26
  3575   00094A                     __ptext26:
  3576                           	callstack 0
  3577   00094A                     ___awmod:
  3578                           	callstack 20
  3579   00094A  6A06               	clrf	___awmod@sign^0,c
  3580   00094C  BE02               	btfsc	(___awmod@dividend+1)^0,7,c
  3581   00094E  EFAD  F004         	goto	i2u55_40
  3582   000952  EFAB  F004         	goto	i2u55_41
  3583   000956                     i2u55_41:
  3584   000956  EFB3  F004         	goto	i2l1555
  3585   00095A                     i2u55_40:
  3586   00095A  6C01               	negf	___awmod@dividend^0,c
  3587   00095C  1E02               	comf	(___awmod@dividend+1)^0,f,c
  3588   00095E  B0D8               	btfsc	status,0,c
  3589   000960  2A02               	incf	(___awmod@dividend+1)^0,f,c
  3590   000962  0E01               	movlw	1
  3591   000964  6E06               	movwf	___awmod@sign^0,c
  3592   000966                     i2l1555:
  3593   000966  BE04               	btfsc	(___awmod@divisor+1)^0,7,c
  3594   000968  EFBA  F004         	goto	i2u56_40
  3595   00096C  EFB8  F004         	goto	i2u56_41
  3596   000970                     i2u56_41:
  3597   000970  EFBE  F004         	goto	i2l1559
  3598   000974                     i2u56_40:
  3599   000974  6C03               	negf	___awmod@divisor^0,c
  3600   000976  1E04               	comf	(___awmod@divisor+1)^0,f,c
  3601   000978  B0D8               	btfsc	status,0,c
  3602   00097A  2A04               	incf	(___awmod@divisor+1)^0,f,c
  3603   00097C                     i2l1559:
  3604   00097C  5003               	movf	___awmod@divisor^0,w,c
  3605   00097E  1004               	iorwf	(___awmod@divisor+1)^0,w,c
  3606   000980  B4D8               	btfsc	status,2,c
  3607   000982  EFC5  F004         	goto	i2u57_41
  3608   000986  EFC7  F004         	goto	i2u57_40
  3609   00098A                     i2u57_41:
  3610   00098A  EFEB  F004         	goto	i2l1575
  3611   00098E                     i2u57_40:
  3612   00098E  0E01               	movlw	1
  3613   000990  6E05               	movwf	___awmod@counter^0,c
  3614   000992  EFCF  F004         	goto	i2l1565
  3615   000996                     i2l1563:
  3616   000996  90D8               	bcf	status,0,c
  3617   000998  3603               	rlcf	___awmod@divisor^0,f,c
  3618   00099A  3604               	rlcf	(___awmod@divisor+1)^0,f,c
  3619   00099C  2A05               	incf	___awmod@counter^0,f,c
  3620   00099E                     i2l1565:
  3621   00099E  AE04               	btfss	(___awmod@divisor+1)^0,7,c
  3622   0009A0  EFD4  F004         	goto	i2u58_41
  3623   0009A4  EFD6  F004         	goto	i2u58_40
  3624   0009A8                     i2u58_41:
  3625   0009A8  EFCB  F004         	goto	i2l1563
  3626   0009AC                     i2u58_40:
  3627   0009AC                     i2l1567:
  3628   0009AC  5003               	movf	___awmod@divisor^0,w,c
  3629   0009AE  5C01               	subwf	___awmod@dividend^0,w,c
  3630   0009B0  5004               	movf	(___awmod@divisor+1)^0,w,c
  3631   0009B2  5802               	subwfb	(___awmod@dividend+1)^0,w,c
  3632   0009B4  A0D8               	btfss	status,0,c
  3633   0009B6  EFDF  F004         	goto	i2u59_41
  3634   0009BA  EFE1  F004         	goto	i2u59_40
  3635   0009BE                     i2u59_41:
  3636   0009BE  EFE5  F004         	goto	i2l1571
  3637   0009C2                     i2u59_40:
  3638   0009C2  5003               	movf	___awmod@divisor^0,w,c
  3639   0009C4  5E01               	subwf	___awmod@dividend^0,f,c
  3640   0009C6  5004               	movf	(___awmod@divisor+1)^0,w,c
  3641   0009C8  5A02               	subwfb	(___awmod@dividend+1)^0,f,c
  3642   0009CA                     i2l1571:
  3643   0009CA  90D8               	bcf	status,0,c
  3644   0009CC  3204               	rrcf	(___awmod@divisor+1)^0,f,c
  3645   0009CE  3203               	rrcf	___awmod@divisor^0,f,c
  3646   0009D0  2E05               	decfsz	___awmod@counter^0,f,c
  3647   0009D2  EFD6  F004         	goto	i2l1567
  3648   0009D6                     i2l1575:
  3649   0009D6  5006               	movf	___awmod@sign^0,w,c
  3650   0009D8  B4D8               	btfsc	status,2,c
  3651   0009DA  EFF1  F004         	goto	i2u60_41
  3652   0009DE  EFF3  F004         	goto	i2u60_40
  3653   0009E2                     i2u60_41:
  3654   0009E2  EFF7  F004         	goto	i2l1579
  3655   0009E6                     i2u60_40:
  3656   0009E6  6C01               	negf	___awmod@dividend^0,c
  3657   0009E8  1E02               	comf	(___awmod@dividend+1)^0,f,c
  3658   0009EA  B0D8               	btfsc	status,0,c
  3659   0009EC  2A02               	incf	(___awmod@dividend+1)^0,f,c
  3660   0009EE                     i2l1579:
  3661   0009EE  C001  F001         	movff	___awmod@dividend,?___awmod
  3662   0009F2  C002  F002         	movff	___awmod@dividend+1,?___awmod+1
  3663   0009F6  0012               	return		;funcret
  3664   0009F8                     __end_of___awmod:
  3665                           	callstack 0
  3666                           
  3667 ;; *************** function ___awdiv *****************
  3668 ;; Defined at:
  3669 ;;		line 7 in file "C:\Program Files\Microchip\xc8\v3.00\pic\sources\c99\common\awdiv.c"
  3670 ;; Parameters:    Size  Location     Type
  3671 ;;  dividend        2    0[COMRAM] int 
  3672 ;;  divisor         2    2[COMRAM] int 
  3673 ;; Auto vars:     Size  Location     Type
  3674 ;;  quotient        2    6[COMRAM] int 
  3675 ;;  sign            1    5[COMRAM] unsigned char 
  3676 ;;  counter         1    4[COMRAM] unsigned char 
  3677 ;; Return value:  Size  Location     Type
  3678 ;;                  2    0[COMRAM] int 
  3679 ;; Registers used:
  3680 ;;		wreg, status,2, status,0
  3681 ;; Tracked objects:
  3682 ;;		On entry : 0/0
  3683 ;;		On exit  : 0/0
  3684 ;;		Unchanged: 0/0
  3685 ;; Data sizes:     COMRAM   BANK0   BANK1   BANK2   BANK3   BANK4   BANK5
  3686 ;;      Params:         4       0       0       0       0       0       0
  3687 ;;      Locals:         4       0       0       0       0       0       0
  3688 ;;      Temps:          0       0       0       0       0       0       0
  3689 ;;      Totals:         8       0       0       0       0       0       0
  3690 ;;Total ram usage:        8 bytes
  3691 ;; Hardware stack levels used: 1
  3692 ;; This function calls:
  3693 ;;		Nothing
  3694 ;; This function is called by:
  3695 ;;		_vfpfcnvrt
  3696 ;; This function uses a non-reentrant model
  3697 ;;
  3698                           
  3699                           	psect	text27
  3700   000888                     __ptext27:
  3701                           	callstack 0
  3702   000888                     ___awdiv:
  3703                           	callstack 20
  3704   000888  6A06               	clrf	___awdiv@sign^0,c
  3705   00088A  BE04               	btfsc	(___awdiv@divisor+1)^0,7,c
  3706   00088C  EF4C  F004         	goto	i2u49_40
  3707   000890  EF4A  F004         	goto	i2u49_41
  3708   000894                     i2u49_41:
  3709   000894  EF52  F004         	goto	i2l1511
  3710   000898                     i2u49_40:
  3711   000898  6C03               	negf	___awdiv@divisor^0,c
  3712   00089A  1E04               	comf	(___awdiv@divisor+1)^0,f,c
  3713   00089C  B0D8               	btfsc	status,0,c
  3714   00089E  2A04               	incf	(___awdiv@divisor+1)^0,f,c
  3715   0008A0  0E01               	movlw	1
  3716   0008A2  6E06               	movwf	___awdiv@sign^0,c
  3717   0008A4                     i2l1511:
  3718   0008A4  BE02               	btfsc	(___awdiv@dividend+1)^0,7,c
  3719   0008A6  EF59  F004         	goto	i2u50_40
  3720   0008AA  EF57  F004         	goto	i2u50_41
  3721   0008AE                     i2u50_41:
  3722   0008AE  EF5F  F004         	goto	i2l1517
  3723   0008B2                     i2u50_40:
  3724   0008B2  6C01               	negf	___awdiv@dividend^0,c
  3725   0008B4  1E02               	comf	(___awdiv@dividend+1)^0,f,c
  3726   0008B6  B0D8               	btfsc	status,0,c
  3727   0008B8  2A02               	incf	(___awdiv@dividend+1)^0,f,c
  3728   0008BA  0E01               	movlw	1
  3729   0008BC  1A06               	xorwf	___awdiv@sign^0,f,c
  3730   0008BE                     i2l1517:
  3731   0008BE  0E00               	movlw	0
  3732   0008C0  6E08               	movwf	(___awdiv@quotient+1)^0,c
  3733   0008C2  0E00               	movlw	0
  3734   0008C4  6E07               	movwf	___awdiv@quotient^0,c
  3735   0008C6  5003               	movf	___awdiv@divisor^0,w,c
  3736   0008C8  1004               	iorwf	(___awdiv@divisor+1)^0,w,c
  3737   0008CA  B4D8               	btfsc	status,2,c
  3738   0008CC  EF6A  F004         	goto	i2u51_41
  3739   0008D0  EF6C  F004         	goto	i2u51_40
  3740   0008D4                     i2u51_41:
  3741   0008D4  EF94  F004         	goto	i2l1539
  3742   0008D8                     i2u51_40:
  3743   0008D8  0E01               	movlw	1
  3744   0008DA  6E05               	movwf	___awdiv@counter^0,c
  3745   0008DC  EF74  F004         	goto	i2l1525
  3746   0008E0                     i2l1523:
  3747   0008E0  90D8               	bcf	status,0,c
  3748   0008E2  3603               	rlcf	___awdiv@divisor^0,f,c
  3749   0008E4  3604               	rlcf	(___awdiv@divisor+1)^0,f,c
  3750   0008E6  2A05               	incf	___awdiv@counter^0,f,c
  3751   0008E8                     i2l1525:
  3752   0008E8  AE04               	btfss	(___awdiv@divisor+1)^0,7,c
  3753   0008EA  EF79  F004         	goto	i2u52_41
  3754   0008EE  EF7B  F004         	goto	i2u52_40
  3755   0008F2                     i2u52_41:
  3756   0008F2  EF70  F004         	goto	i2l1523
  3757   0008F6                     i2u52_40:
  3758   0008F6                     i2l1527:
  3759   0008F6  90D8               	bcf	status,0,c
  3760   0008F8  3607               	rlcf	___awdiv@quotient^0,f,c
  3761   0008FA  3608               	rlcf	(___awdiv@quotient+1)^0,f,c
  3762   0008FC  5003               	movf	___awdiv@divisor^0,w,c
  3763   0008FE  5C01               	subwf	___awdiv@dividend^0,w,c
  3764   000900  5004               	movf	(___awdiv@divisor+1)^0,w,c
  3765   000902  5802               	subwfb	(___awdiv@dividend+1)^0,w,c
  3766   000904  A0D8               	btfss	status,0,c
  3767   000906  EF87  F004         	goto	i2u53_41
  3768   00090A  EF89  F004         	goto	i2u53_40
  3769   00090E                     i2u53_41:
  3770   00090E  EF8E  F004         	goto	i2l1535
  3771   000912                     i2u53_40:
  3772   000912  5003               	movf	___awdiv@divisor^0,w,c
  3773   000914  5E01               	subwf	___awdiv@dividend^0,f,c
  3774   000916  5004               	movf	(___awdiv@divisor+1)^0,w,c
  3775   000918  5A02               	subwfb	(___awdiv@dividend+1)^0,f,c
  3776   00091A  8007               	bsf	___awdiv@quotient^0,0,c
  3777   00091C                     i2l1535:
  3778   00091C  90D8               	bcf	status,0,c
  3779   00091E  3204               	rrcf	(___awdiv@divisor+1)^0,f,c
  3780   000920  3203               	rrcf	___awdiv@divisor^0,f,c
  3781   000922  2E05               	decfsz	___awdiv@counter^0,f,c
  3782   000924  EF7B  F004         	goto	i2l1527
  3783   000928                     i2l1539:
  3784   000928  5006               	movf	___awdiv@sign^0,w,c
  3785   00092A  B4D8               	btfsc	status,2,c
  3786   00092C  EF9A  F004         	goto	i2u54_41
  3787   000930  EF9C  F004         	goto	i2u54_40
  3788   000934                     i2u54_41:
  3789   000934  EFA0  F004         	goto	i2l1543
  3790   000938                     i2u54_40:
  3791   000938  6C07               	negf	___awdiv@quotient^0,c
  3792   00093A  1E08               	comf	(___awdiv@quotient+1)^0,f,c
  3793   00093C  B0D8               	btfsc	status,0,c
  3794   00093E  2A08               	incf	(___awdiv@quotient+1)^0,f,c
  3795   000940                     i2l1543:
  3796   000940  C007  F001         	movff	___awdiv@quotient,?___awdiv
  3797   000944  C008  F002         	movff	___awdiv@quotient+1,?___awdiv+1
  3798   000948  0012               	return		;funcret
  3799   00094A                     __end_of___awdiv:
  3800                           	callstack 0
  3801                           
  3802 ;; *************** function _UART_Write_Text *****************
  3803 ;; Defined at:
  3804 ;;		line 47 in file "setting_hardaware/uart.c"
  3805 ;; Parameters:    Size  Location     Type
  3806 ;;  text            2    1[COMRAM] PTR unsigned char 
  3807 ;;		 -> STR_3(2), readY@value(20), readX@value(20), 
  3808 ;; Auto vars:     Size  Location     Type
  3809 ;;  i               2    5[COMRAM] int 
  3810 ;; Return value:  Size  Location     Type
  3811 ;;                  1    wreg      void 
  3812 ;; Registers used:
  3813 ;;		wreg, fsr0l, fsr0h, status,2, status,0, tblptrl, tblptrh, tblptru, cstack
  3814 ;; Tracked objects:
  3815 ;;		On entry : 0/0
  3816 ;;		On exit  : 0/0
  3817 ;;		Unchanged: 0/0
  3818 ;; Data sizes:     COMRAM   BANK0   BANK1   BANK2   BANK3   BANK4   BANK5
  3819 ;;      Params:         2       0       0       0       0       0       0
  3820 ;;      Locals:         2       0       0       0       0       0       0
  3821 ;;      Temps:          2       0       0       0       0       0       0
  3822 ;;      Totals:         6       0       0       0       0       0       0
  3823 ;;Total ram usage:        6 bytes
  3824 ;; Hardware stack levels used: 1
  3825 ;; Hardware stack levels required when called: 1
  3826 ;; This function calls:
  3827 ;;		i2_UART_Write
  3828 ;; This function is called by:
  3829 ;;		_readX
  3830 ;;		_readY
  3831 ;; This function uses a non-reentrant model
  3832 ;;
  3833                           
  3834                           	psect	text28
  3835   000AA2                     __ptext28:
  3836                           	callstack 0
  3837   000AA2                     _UART_Write_Text:
  3838                           	callstack 22
  3839   000AA2                     
  3840                           ;setting_hardaware/uart.c: 48:     for(int i=0;text[i]!='\0';i++)
  3841   000AA2  0E00               	movlw	0
  3842   000AA4  6E07               	movwf	(UART_Write_Text@i+1)^0,c
  3843   000AA6  0E00               	movlw	0
  3844   000AA8  6E06               	movwf	UART_Write_Text@i^0,c
  3845   000AAA  EF71  F005         	goto	i2l1685
  3846   000AAE                     i2l1681:
  3847                           
  3848                           ;setting_hardaware/uart.c: 49:         UART_Write(text[i]);
  3849   000AAE  5006               	movf	UART_Write_Text@i^0,w,c
  3850   000AB0  2402               	addwf	UART_Write_Text@text^0,w,c
  3851   000AB2  6E04               	movwf	??_UART_Write_Text^0,c
  3852   000AB4  5007               	movf	(UART_Write_Text@i+1)^0,w,c
  3853   000AB6  2003               	addwfc	(UART_Write_Text@text+1)^0,w,c
  3854   000AB8  6E05               	movwf	(??_UART_Write_Text+1)^0,c
  3855   000ABA  C004  FFF6         	movff	??_UART_Write_Text,tblptrl
  3856   000ABE  C005  FFF7         	movff	??_UART_Write_Text+1,tblptrh
  3857   000AC2  6AF8               	clrf	tblptru,c
  3858   000AC4  0E05               	movlw	(high __ramtop+-1)
  3859   000AC6  64F7               	cpfsgt	tblptrh,c
  3860   000AC8  D003               	bra	i2u78_47
  3861   000ACA  0008               	tblrd		*
  3862   000ACC  50F5               	movf	tablat,w,c
  3863   000ACE  D005               	bra	i2u78_40
  3864   000AD0                     i2u78_47:
  3865   000AD0  CFF6 FFE9          	movff	tblptrl,fsr0l
  3866   000AD4  CFF7 FFEA          	movff	tblptrh,fsr0h
  3867   000AD8  50EF               	movf	indf0,w,c
  3868   000ADA                     i2u78_40:
  3869   000ADA  EC3C  F007         	call	i2_UART_Write
  3870   000ADE  4A06               	infsnz	UART_Write_Text@i^0,f,c
  3871   000AE0  2A07               	incf	(UART_Write_Text@i+1)^0,f,c
  3872   000AE2                     i2l1685:
  3873   000AE2  5006               	movf	UART_Write_Text@i^0,w,c
  3874   000AE4  2402               	addwf	UART_Write_Text@text^0,w,c
  3875   000AE6  6E04               	movwf	??_UART_Write_Text^0,c
  3876   000AE8  5007               	movf	(UART_Write_Text@i+1)^0,w,c
  3877   000AEA  2003               	addwfc	(UART_Write_Text@text+1)^0,w,c
  3878   000AEC  6E05               	movwf	(??_UART_Write_Text+1)^0,c
  3879   000AEE  C004  FFF6         	movff	??_UART_Write_Text,tblptrl
  3880   000AF2  C005  FFF7         	movff	??_UART_Write_Text+1,tblptrh
  3881   000AF6  6AF8               	clrf	tblptru,c
  3882   000AF8  0E05               	movlw	(high __ramtop+-1)
  3883   000AFA  64F7               	cpfsgt	tblptrh,c
  3884   000AFC  D003               	bra	i2u79_47
  3885   000AFE  0008               	tblrd		*
  3886   000B00  50F5               	movf	tablat,w,c
  3887   000B02  D005               	bra	i2u79_40
  3888   000B04                     i2u79_47:
  3889   000B04  CFF6 FFE9          	movff	tblptrl,fsr0l
  3890   000B08  CFF7 FFEA          	movff	tblptrh,fsr0h
  3891   000B0C  50EF               	movf	indf0,w,c
  3892   000B0E                     i2u79_40:
  3893   000B0E  0900               	iorlw	0
  3894   000B10  A4D8               	btfss	status,2,c
  3895   000B12  EF8D  F005         	goto	i2u80_41
  3896   000B16  EF8F  F005         	goto	i2u80_40
  3897   000B1A                     i2u80_41:
  3898   000B1A  EF57  F005         	goto	i2l1681
  3899   000B1E                     i2u80_40:
  3900   000B1E  0012               	return		;funcret
  3901   000B20                     __end_of_UART_Write_Text:
  3902                           	callstack 0
  3903                           
  3904 ;; *************** function i2_UART_Write *****************
  3905 ;; Defined at:
  3906 ;;		line 42 in file "setting_hardaware/uart.c"
  3907 ;; Parameters:    Size  Location     Type
  3908 ;;  data            1    wreg     unsigned char 
  3909 ;; Auto vars:     Size  Location     Type
  3910 ;;  data            1    0[COMRAM] unsigned char 
  3911 ;; Return value:  Size  Location     Type
  3912 ;;                  1    wreg      void 
  3913 ;; Registers used:
  3914 ;;		wreg
  3915 ;; Tracked objects:
  3916 ;;		On entry : 0/0
  3917 ;;		On exit  : 0/0
  3918 ;;		Unchanged: 0/0
  3919 ;; Data sizes:     COMRAM   BANK0   BANK1   BANK2   BANK3   BANK4   BANK5
  3920 ;;      Params:         0       0       0       0       0       0       0
  3921 ;;      Locals:         1       0       0       0       0       0       0
  3922 ;;      Temps:          0       0       0       0       0       0       0
  3923 ;;      Totals:         1       0       0       0       0       0       0
  3924 ;;Total ram usage:        1 bytes
  3925 ;; Hardware stack levels used: 1
  3926 ;; This function calls:
  3927 ;;		Nothing
  3928 ;; This function is called by:
  3929 ;;		_readX
  3930 ;;		_UART_Write_Text
  3931 ;; This function uses a non-reentrant model
  3932 ;;
  3933                           
  3934                           	psect	text29
  3935   000E78                     __ptext29:
  3936                           	callstack 0
  3937   000E78                     i2_UART_Write:
  3938                           	callstack 22
  3939                           
  3940                           ;incstack = 0
  3941                           ;i2UART_Write@data stored from wreg
  3942   000E78  6E01               	movwf	i2UART_Write@data^0,c
  3943   000E7A                     i2l237:
  3944   000E7A  A2AC               	btfss	172,1,c	;volatile
  3945   000E7C  EF42  F007         	goto	i2u77_41
  3946   000E80  EF44  F007         	goto	i2u77_40
  3947   000E84                     i2u77_41:
  3948   000E84  EF3D  F007         	goto	i2l237
  3949   000E88                     i2u77_40:
  3950   000E88                     
  3951                           ;setting_hardaware/uart.c: 45:     TXREG = data;
  3952   000E88  C001  FFAD         	movff	i2UART_Write@data,4013	;volatile
  3953   000E8C  0012               	return		;funcret
  3954   000E8E                     __end_ofi2_UART_Write:
  3955                           	callstack 0
  3956                           
  3957                           	psect	rparam
  3958   000001                     ___rparam_used  equ	1
  3959   000000                     ___param_bank   equ	0
  3960   000000                     __Lparam        equ	__Lrparam
  3961   000000                     __Hparam        equ	__Hrparam
  3962                           
  3963                           	psect	temp
  3964   000077                     btemp:
  3965                           	callstack 0
  3966   000077                     	ds	1
  3967   000077                     int$flags       set	btemp
  3968   000078                     wtemp8          set	btemp+1
  3969   000078                     ttemp5          set	btemp+1
  3970   00007B                     ttemp6          set	btemp+4
  3971   00007F                     ttemp7          set	btemp+8
  3972                           
  3973                           	psect	idloc
  3974                           
  3975                           ;Config register IDLOC0 @ 0x200000
  3976                           ;	unspecified, using default values
  3977   200000                     	org	2097152
  3978   200000  FF                 	db	255
  3979                           
  3980                           ;Config register IDLOC1 @ 0x200001
  3981                           ;	unspecified, using default values
  3982   200001                     	org	2097153
  3983   200001  FF                 	db	255
  3984                           
  3985                           ;Config register IDLOC2 @ 0x200002
  3986                           ;	unspecified, using default values
  3987   200002                     	org	2097154
  3988   200002  FF                 	db	255
  3989                           
  3990                           ;Config register IDLOC3 @ 0x200003
  3991                           ;	unspecified, using default values
  3992   200003                     	org	2097155
  3993   200003  FF                 	db	255
  3994                           
  3995                           ;Config register IDLOC4 @ 0x200004
  3996                           ;	unspecified, using default values
  3997   200004                     	org	2097156
  3998   200004  FF                 	db	255
  3999                           
  4000                           ;Config register IDLOC5 @ 0x200005
  4001                           ;	unspecified, using default values
  4002   200005                     	org	2097157
  4003   200005  FF                 	db	255
  4004                           
  4005                           ;Config register IDLOC6 @ 0x200006
  4006                           ;	unspecified, using default values
  4007   200006                     	org	2097158
  4008   200006  FF                 	db	255
  4009                           
  4010                           ;Config register IDLOC7 @ 0x200007
  4011                           ;	unspecified, using default values
  4012   200007                     	org	2097159
  4013   200007  FF                 	db	255
  4014                           
  4015                           	psect	config
  4016                           
  4017                           ; Padding undefined space
  4018   300000                     	org	3145728
  4019   300000  FF                 	db	255
  4020                           
  4021                           ;Config register CONFIG1H @ 0x300001
  4022                           ;	Oscillator Selection bits
  4023                           ;	OSC = INTIO67, Internal oscillator block, port function on RA6 and RA7
  4024                           ;	Fail-Safe Clock Monitor Enable bit
  4025                           ;	FCMEN = OFF, Fail-Safe Clock Monitor disabled
  4026                           ;	Internal/External Oscillator Switchover bit
  4027                           ;	IESO = ON, Oscillator Switchover mode enabled
  4028   300001                     	org	3145729
  4029   300001  88                 	db	136
  4030                           
  4031                           ;Config register CONFIG2L @ 0x300002
  4032                           ;	Power-up Timer Enable bit
  4033                           ;	PWRT = OFF, PWRT disabled
  4034                           ;	Brown-out Reset Enable bits
  4035                           ;	BOREN = SBORDIS, Brown-out Reset enabled in hardware only (SBOREN is disabled)
  4036                           ;	Brown Out Reset Voltage bits
  4037                           ;	BORV = 3, Minimum setting
  4038   300002                     	org	3145730
  4039   300002  1F                 	db	31
  4040                           
  4041                           ;Config register CONFIG2H @ 0x300003
  4042                           ;	Watchdog Timer Enable bit
  4043                           ;	WDT = OFF, WDT disabled (control is placed on the SWDTEN bit)
  4044                           ;	Watchdog Timer Postscale Select bits
  4045                           ;	WDTPS = 1, 1:1
  4046   300003                     	org	3145731
  4047   300003  00                 	db	0
  4048                           
  4049                           ; Padding undefined space
  4050   300004                     	org	3145732
  4051   300004  FF                 	db	255
  4052                           
  4053                           ;Config register CONFIG3H @ 0x300005
  4054                           ;	CCP2 MUX bit
  4055                           ;	CCP2MX = PORTC, CCP2 input/output is multiplexed with RC1
  4056                           ;	PORTB A/D Enable bit
  4057                           ;	PBADEN = ON, PORTB<4:0> pins are configured as analog input channels on Reset
  4058                           ;	Low-Power Timer1 Oscillator Enable bit
  4059                           ;	LPT1OSC = OFF, Timer1 configured for higher power operation
  4060                           ;	MCLR Pin Enable bit
  4061                           ;	MCLRE = ON, MCLR pin enabled; RE3 input pin disabled
  4062   300005                     	org	3145733
  4063   300005  83                 	db	131
  4064                           
  4065                           ;Config register CONFIG4L @ 0x300006
  4066                           ;	Stack Full/Underflow Reset Enable bit
  4067                           ;	STVREN = ON, Stack full/underflow will cause Reset
  4068                           ;	Single-Supply ICSP Enable bit
  4069                           ;	LVP = OFF, Single-Supply ICSP disabled
  4070                           ;	Extended Instruction Set Enable bit
  4071                           ;	XINST = OFF, Instruction set extension and Indexed Addressing mode disabled (Legacy mo
      +                          de)
  4072                           ;	Background Debugger Enable bit
  4073                           ;	DEBUG = 0x1, unprogrammed default
  4074   300006                     	org	3145734
  4075   300006  81                 	db	129
  4076                           
  4077                           ; Padding undefined space
  4078   300007                     	org	3145735
  4079   300007  FF                 	db	255
  4080                           
  4081                           ;Config register CONFIG5L @ 0x300008
  4082                           ;	Code Protection bit
  4083                           ;	CP0 = OFF, Block 0 (000800-001FFFh) not code-protected
  4084                           ;	Code Protection bit
  4085                           ;	CP1 = OFF, Block 1 (002000-003FFFh) not code-protected
  4086                           ;	Code Protection bit
  4087                           ;	CP2 = OFF, Block 2 (004000-005FFFh) not code-protected
  4088                           ;	Code Protection bit
  4089                           ;	CP3 = OFF, Block 3 (006000-007FFFh) not code-protected
  4090   300008                     	org	3145736
  4091   300008  0F                 	db	15
  4092                           
  4093                           ;Config register CONFIG5H @ 0x300009
  4094                           ;	Boot Block Code Protection bit
  4095                           ;	CPB = OFF, Boot block (000000-0007FFh) not code-protected
  4096                           ;	Data EEPROM Code Protection bit
  4097                           ;	CPD = OFF, Data EEPROM not code-protected
  4098   300009                     	org	3145737
  4099   300009  C0                 	db	192
  4100                           
  4101                           ;Config register CONFIG6L @ 0x30000A
  4102                           ;	Write Protection bit
  4103                           ;	WRT0 = OFF, Block 0 (000800-001FFFh) not write-protected
  4104                           ;	Write Protection bit
  4105                           ;	WRT1 = OFF, Block 1 (002000-003FFFh) not write-protected
  4106                           ;	Write Protection bit
  4107                           ;	WRT2 = OFF, Block 2 (004000-005FFFh) not write-protected
  4108                           ;	Write Protection bit
  4109                           ;	WRT3 = OFF, Block 3 (006000-007FFFh) not write-protected
  4110   30000A                     	org	3145738
  4111   30000A  0F                 	db	15
  4112                           
  4113                           ;Config register CONFIG6H @ 0x30000B
  4114                           ;	Configuration Register Write Protection bit
  4115                           ;	WRTC = OFF, Configuration registers (300000-3000FFh) not write-protected
  4116                           ;	Boot Block Write Protection bit
  4117                           ;	WRTB = OFF, Boot block (000000-0007FFh) not write-protected
  4118                           ;	Data EEPROM Write Protection bit
  4119                           ;	WRTD = OFF, Data EEPROM not write-protected
  4120   30000B                     	org	3145739
  4121   30000B  E0                 	db	224
  4122                           
  4123                           ;Config register CONFIG7L @ 0x30000C
  4124                           ;	Table Read Protection bit
  4125                           ;	EBTR0 = OFF, Block 0 (000800-001FFFh) not protected from table reads executed in other
      +                           blocks
  4126                           ;	Table Read Protection bit
  4127                           ;	EBTR1 = OFF, Block 1 (002000-003FFFh) not protected from table reads executed in other
      +                           blocks
  4128                           ;	Table Read Protection bit
  4129                           ;	EBTR2 = OFF, Block 2 (004000-005FFFh) not protected from table reads executed in other
      +                           blocks
  4130                           ;	Table Read Protection bit
  4131                           ;	EBTR3 = OFF, Block 3 (006000-007FFFh) not protected from table reads executed in other
      +                           blocks
  4132   30000C                     	org	3145740
  4133   30000C  0F                 	db	15
  4134                           
  4135                           ;Config register CONFIG7H @ 0x30000D
  4136                           ;	Boot Block Table Read Protection bit
  4137                           ;	EBTRB = OFF, Boot block (000000-0007FFh) not protected from table reads executed in ot
      +                          her blocks
  4138   30000D                     	org	3145741
  4139   30000D  40                 	db	64
  4140                           tosu	equ	0xFFF
  4141                           tosh	equ	0xFFE
  4142                           tosl	equ	0xFFD
  4143                           stkptr	equ	0xFFC
  4144                           pclatu	equ	0xFFB
  4145                           pclath	equ	0xFFA
  4146                           pcl	equ	0xFF9
  4147                           tblptru	equ	0xFF8
  4148                           tblptrh	equ	0xFF7
  4149                           tblptrl	equ	0xFF6
  4150                           tablat	equ	0xFF5
  4151                           prodh	equ	0xFF4
  4152                           prodl	equ	0xFF3
  4153                           indf0	equ	0xFEF
  4154                           postinc0	equ	0xFEE
  4155                           postdec0	equ	0xFED
  4156                           preinc0	equ	0xFEC
  4157                           plusw0	equ	0xFEB
  4158                           fsr0h	equ	0xFEA
  4159                           fsr0l	equ	0xFE9
  4160                           wreg	equ	0xFE8
  4161                           indf1	equ	0xFE7
  4162                           postinc1	equ	0xFE6
  4163                           postdec1	equ	0xFE5
  4164                           preinc1	equ	0xFE4
  4165                           plusw1	equ	0xFE3
  4166                           fsr1h	equ	0xFE2
  4167                           fsr1l	equ	0xFE1
  4168                           bsr	equ	0xFE0
  4169                           indf2	equ	0xFDF
  4170                           postinc2	equ	0xFDE
  4171                           postdec2	equ	0xFDD
  4172                           preinc2	equ	0xFDC
  4173                           plusw2	equ	0xFDB
  4174                           fsr2h	equ	0xFDA
  4175                           fsr2l	equ	0xFD9
  4176                           status	equ	0xFD8

Data Sizes:
    Strings     5
    Constant    0
    Data        24
    BSS         133
    Persistent  0
    Stack       0

Auto Spaces:
    Space          Size  Autos    Used
    COMRAM          126     65     118
    BANK0           128     12     116
    BANK1           256      5       5
    BANK2           256      0       0
    BANK3           256      0       0
    BANK4           256      0       0
    BANK5           256      0       0

Pointer List with Targets:

    f$.$buffer	PTR unsigned char  size(1) Largest target is 20
		 -> readX@value(COMRAM[20]), readY@value(COMRAM[20]), 

    f$.$source	PTR const unsigned char  size(2) Largest target is 0

    fputc@fp	PTR struct _IO_FILE size(1) Largest target is 11
		 -> sprintf@f(COMRAM[11]), 

    fputc@fp$.$buffer	PTR unsigned char  size(1) Largest target is 20
		 -> readX@value(COMRAM[20]), readY@value(COMRAM[20]), 

    fputc@fp$.$source	PTR const unsigned char  size(2) Largest target is 0

    S1834$buffer	PTR unsigned char  size(1) Largest target is 20
		 -> readX@value(COMRAM[20]), readY@value(COMRAM[20]), 

    S1834$source	PTR const unsigned char  size(2) Largest target is 0

    sp__GetString	PTR unsigned char  size(1) Largest target is 20
		 -> mystring(BANK0[20]), 

    sprintf@ap	PTR void [1] size(1) Largest target is 2
		 -> ?_sprintf(COMRAM[2]), 

    sprintf@fmt	PTR const unsigned char  size(1) Largest target is 3
		 -> STR_1(CODE[3]), STR_2(CODE[3]), 

    sprintf@s	PTR unsigned char  size(1) Largest target is 20
		 -> readX@value(COMRAM[20]), readY@value(COMRAM[20]), 

    UART_Write_Text@text	PTR unsigned char  size(2) Largest target is 20
		 -> readX@value(COMRAM[20]), readY@value(COMRAM[20]), STR_3(CODE[2]), 

    vfpfcnvrt@ap	PTR PTR void  size(1) Largest target is 1
		 -> sprintf@ap(COMRAM[1]), 

    vfpfcnvrt@cp	PTR unsigned char  size(1) Largest target is 3
		 -> STR_1(CODE[3]), STR_2(CODE[3]), 

    vfpfcnvrt@fmt	PTR PTR unsigned char  size(1) Largest target is 1
		 -> vfprintf@cfmt(COMRAM[1]), 

    vfpfcnvrt@fp	PTR struct _IO_FILE size(1) Largest target is 11
		 -> sprintf@f(COMRAM[11]), 

    vfprintf@ap	PTR PTR void  size(1) Largest target is 1
		 -> sprintf@ap(COMRAM[1]), 

    vfprintf@cfmt	PTR unsigned char  size(1) Largest target is 3
		 -> STR_1(CODE[3]), STR_2(CODE[3]), 

    vfprintf@fmt	PTR const unsigned char  size(1) Largest target is 3
		 -> STR_1(CODE[3]), STR_2(CODE[3]), 

    vfprintf@fp	PTR struct _IO_FILE size(1) Largest target is 11
		 -> sprintf@f(COMRAM[11]), 


Critical Paths under _main in COMRAM

    None.

Critical Paths under _Lo_ISR in COMRAM

    None.

Critical Paths under _Hi_ISR in COMRAM

    _Hi_ISR->_readX
    _Hi_ISR->_readY
    _readY->_sprintf
    _readX->_sprintf
    _sprintf->_vfprintf
    _vfprintf->_vfpfcnvrt
    _vfpfcnvrt->_abs
    _abs->___awmod
    _UART_Write_Text->i2_UART_Write

Critical Paths under _main in BANK0

    None.

Critical Paths under _Lo_ISR in BANK0

    _Lo_ISR->_MyusartRead
    _MyusartRead->_UART_Write

Critical Paths under _Hi_ISR in BANK0

    None.

Critical Paths under _main in BANK1

    None.

Critical Paths under _Lo_ISR in BANK1

    None.

Critical Paths under _Hi_ISR in BANK1

    None.

Critical Paths under _main in BANK2

    None.

Critical Paths under _Lo_ISR in BANK2

    None.

Critical Paths under _Hi_ISR in BANK2

    None.

Critical Paths under _main in BANK3

    None.

Critical Paths under _Lo_ISR in BANK3

    None.

Critical Paths under _Hi_ISR in BANK3

    None.

Critical Paths under _main in BANK4

    None.

Critical Paths under _Lo_ISR in BANK4

    None.

Critical Paths under _Hi_ISR in BANK4

    None.

Critical Paths under _main in BANK5

    None.

Critical Paths under _Lo_ISR in BANK5

    None.

Critical Paths under _Hi_ISR in BANK5

    None.

Call Graph Tables:

 ---------------------------------------------------------------------------------
 (Depth) Function   	        Calls       Base Space   Used Autos Params    Refs
 ---------------------------------------------------------------------------------
 (0) _main                                                 0     0      0       0
                            _LEDInit
                  _SYSTEM_Initialize
                           _adc0Init
                           _adc1Init
 ---------------------------------------------------------------------------------
 (1) _adc1Init                                             0     0      0       0
                         _ANPinReset
 ---------------------------------------------------------------------------------
 (1) _adc0Init                                             0     0      0       0
                         _ANPinReset
 ---------------------------------------------------------------------------------
 (2) _ANPinReset                                           0     0      0       0
 ---------------------------------------------------------------------------------
 (1) _SYSTEM_Initialize                                    0     0      0       0
                     _ADC_Initialize
               _INTERRUPT_Initialize
              _OSCILLATOR_Initialize
                    _TMR2_Initialize
                    _UART_Initialize
 ---------------------------------------------------------------------------------
 (2) _UART_Initialize                                      0     0      0       0
 ---------------------------------------------------------------------------------
 (2) _TMR2_Initialize                                      0     0      0       0
 ---------------------------------------------------------------------------------
 (2) _OSCILLATOR_Initialize                                0     0      0       0
 ---------------------------------------------------------------------------------
 (2) _INTERRUPT_Initialize                                 0     0      0       0
 ---------------------------------------------------------------------------------
 (2) _ADC_Initialize                                       0     0      0       0
 ---------------------------------------------------------------------------------
 (1) _LEDInit                                              0     0      0       0
 ---------------------------------------------------------------------------------
 Estimated maximum stack depth 2
 ---------------------------------------------------------------------------------
 (Depth) Function   	        Calls       Base Space   Used Autos Params    Refs
 ---------------------------------------------------------------------------------
 (3) _Lo_ISR                                               5     5      0     118
                                              0 BANK1      5     5      0
                        _MyusartRead
 ---------------------------------------------------------------------------------
 (4) _MyusartRead                                          1     1      0     118
                                             11 BANK0      1     1      0
                         _UART_Write
 ---------------------------------------------------------------------------------
 (5) _UART_Write                                           1     1      0      29
                                             10 BANK0      1     1      0
 ---------------------------------------------------------------------------------
 Estimated maximum stack depth 5
 ---------------------------------------------------------------------------------
 (Depth) Function   	        Calls       Base Space   Used Autos Params    Refs
 ---------------------------------------------------------------------------------
 (6) _Hi_ISR                                              10    10      0    3943
                                              0 BANK0     10    10      0
                              _readX
                              _readY
                         i2_adc0Init
                         i2_adc1Init
 ---------------------------------------------------------------------------------
 (7) i2_adc1Init                                           0     0      0       0
                       i2_ANPinReset
 ---------------------------------------------------------------------------------
 (7) i2_adc0Init                                           0     0      0       0
                       i2_ANPinReset
 ---------------------------------------------------------------------------------
 (8) i2_ANPinReset                                         0     0      0       0
 ---------------------------------------------------------------------------------
 (7) _readY                                               24    24      0    1957
                                             41 COMRAM    24    24      0
                    _UART_Write_Text
                            _sprintf
 ---------------------------------------------------------------------------------
 (7) _readX                                               24    24      0    1986
                                             41 COMRAM    24    24      0
                    _UART_Write_Text
                            _sprintf
                       i2_UART_Write
 ---------------------------------------------------------------------------------
 (8) _sprintf                                             18    14      4    1762
                                             25 COMRAM    16    12      4
                           _vfprintf
 ---------------------------------------------------------------------------------
 (9) _vfprintf                                             4     1      3    1559
                                             21 COMRAM     4     1      3
                          _vfpfcnvrt
 ---------------------------------------------------------------------------------
 (10) _vfpfcnvrt                                          11     8      3    1434
                                             10 COMRAM    11     8      3
                            ___awdiv
                            ___awmod
                                _abs
                              _fputc
 ---------------------------------------------------------------------------------
 (11) _fputc                                               8     5      3     230
                                              0 COMRAM     8     5      3
                              _putch
 ---------------------------------------------------------------------------------
 (12) _putch                                               1     1      0       0
 ---------------------------------------------------------------------------------
 (11) _abs                                                 4     2      2      67
                                              6 COMRAM     4     2      2
                            ___awmod (ARG)
 ---------------------------------------------------------------------------------
 (11) ___awmod                                             6     2      4     298
                                              0 COMRAM     6     2      4
 ---------------------------------------------------------------------------------
 (11) ___awdiv                                             8     4      4     302
                                              0 COMRAM     8     4      4
 ---------------------------------------------------------------------------------
 (8) _UART_Write_Text                                      6     4      2     122
                                              1 COMRAM     6     4      2
                       i2_UART_Write
 ---------------------------------------------------------------------------------
 (9) i2_UART_Write                                         1     1      0      29
                                              0 COMRAM     1     1      0
 ---------------------------------------------------------------------------------
 Estimated maximum stack depth 12
 ---------------------------------------------------------------------------------

 Call Graph Graphs:

 _main (ROOT)
   _LEDInit
   _SYSTEM_Initialize
     _ADC_Initialize
     _INTERRUPT_Initialize
     _OSCILLATOR_Initialize
     _TMR2_Initialize
     _UART_Initialize
   _adc0Init
     _ANPinReset
   _adc1Init
     _ANPinReset

 _Lo_ISR (ROOT)
   _MyusartRead
     _UART_Write

 _Hi_ISR (ROOT)
   _readX
     _UART_Write_Text
       i2_UART_Write
     _sprintf
       _vfprintf
         _vfpfcnvrt
           ___awdiv
           ___awmod
           _abs
             ___awmod (ARG)
           _fputc
             _putch
     i2_UART_Write
   _readY
     _UART_Write_Text
     _sprintf
   i2_adc0Init
     i2_ANPinReset
   i2_adc1Init
     i2_ANPinReset

Address spaces:
Name               Size   Autos  Total    Usage
BIGRAM            1535      0       0      0.0%
BITBANK5           256      0       0      0.0%
BANK5              256      0       0      0.0%
BITBANK4           256      0       0      0.0%
BANK4              256      0       0      0.0%
BITBANK3           256      0       0      0.0%
BANK3              256      0       0      0.0%
BITBANK2           256      0       0      0.0%
BANK2              256      0       0      0.0%
BITBANK1           256      0       0      0.0%
BANK1              256      5       5      2.0%
BITBANK0           128      0       0      0.0%
BANK0              128     12     116     90.6%
BITCOMRAM          126      0       0      0.0%
COMRAM             126     65     118     93.7%
BITBIGSFRh          82      0       0      0.0%
BITBIGSFRlh         35      0       0      0.0%
BITBIGSFRll          9      0       0      0.0%
STACK                0      0       0      0.0%
DATA                 0      0     237      0.0%


Microchip Technology PIC18 Macro Assembler V3.00 build 20241204225717 
Symbol Table                                                                                   Sun Dec 14 16:19:56 2025

                   i2_adc0Init 0DA8                     i2_adc1Init 0DE8                    ?_ANPinReset 0001  
                           l82 0D84                             l85 0DE6                             l79 0E4A  
                           l95 0C4E                             l88 0EB2                             l96 0C4E  
                 ___awdiv@sign 0006                             bsr 0FE0                            l134 0D62  
                          l234 0DA6                            l157 0EC2                            l190 0EA0  
                          l196 0E60                            l199 0EBA                            _PR2 0FCB  
                          u850 0C32                            u851 0C2E                            u860 0C48  
                          u861 0C44                            _Kdx 006B                            _Kdy 005F  
                          _Kix 006F                            _Kiy 0063                            _Kpx 0073  
                          _Kpy 0067                            _abs 0D04                            _str 00A0  
                 ___awmod@sign 0006                _TMR2_Initialize 0E8E                            wreg 0FE8  
              __end_of_LEDInit 0EB4                           ?_abs 0007                           l1701 0D5C  
                         l1703 0D5E                           l1711 0E94                           l1705 0D60  
                         l1713 0E9C                           l1721 0D90                           l1707 0EBC  
                         l1715 0E9E                           l1731 0D9C                           l1723 0D94  
                         l1717 0EB4                           l1709 0E8E                           l1733 0D9E  
                         l1725 0D96                           l1741 0D64                           l1735 0DA0  
                         l1727 0D98                           l1719 0D86                           l1751 0D70  
                         l1743 0D68                           l1831 0C36                           l1823 0C18  
                         l1737 0DA2                           l1729 0D9A                           l1665 0E36  
                         l1753 0D72                           l1745 0D6A                           l1761 0DCE  
                         l1833 0C48                           l1825 0C1C                           l1691 0D38  
                         l1739 0DA4                           l1755 0D7A                           l1747 0D6C  
                         l1771 0DD8                           l1763 0DD0                           l1835 0C4C  
                         l1827 0C20                           l1693 0D3E                           l1781 0E50  
                         l1757 0D82                           l1749 0D6E                           l1773 0DE0  
                         l1765 0DD2                           l1829 0C32                           l1695 0D56  
                         l1783 0E54                           l1775 0DE4                           l1767 0DD4  
                         l1759 0DCA                           l1777 0EA2                           l1697 0D58  
                         l1769 0DD6                           l1699 0D5A                           l1779 0E4C  
                         STR_1 0601                           STR_2 0601                           STR_3 0604  
                         _CREN 7D5C                           _RCIF 7CF5                           i2l82 0DC8  
                         i2l85 0E04                           i2l79 0E76                           abs@a 0007  
                         _dbuf 0080                           _main 0C18                           _axis 005A  
                         _prec 0054                           fsr0h 0FEA                           fsr1h 0FE2  
                         indf0 0FEF                           fsr2h 0FDA                           fsr0l 0FE9  
                         indf2 0FDF                           fsr1l 0FE1                           fsr2l 0FD9  
                         btemp 0077                           start 006C                   ___param_bank 0000  
                  _stringReady 0056        __end_of_UART_Write_Text 0B20                          ??_abs 0009  
             ?_UART_Initialize 0001  __end_of_OSCILLATOR_Initialize 0EBC                          ?_main 0001  
              __end_of___awdiv 094A                __end_of___awmod 09F8                ___awdiv@divisor 0003  
                        _IRCF0 7E9C                          _IRCF1 7E9D                          _IRCF2 7E9E  
                        i1l240 0E34                          i2l101 0CCE                          i1l237 0E22  
                        i2l104 0C16                          i1l272 0054                          i2l115 085C  
                        i1l259 0B8A                          i2l240 0E8C                          i2l237 0E7A  
                        i2l246 0B1E                          i2l506 0948                          i2l519 09F6  
                        i2l953 0D02                ___awdiv@counter 0005                          i2l991 07BE  
                        i2l997 0C92                          _RCREG 0FAE                   vfpfcnvrt@fmt 000C  
                        _TMR1H 0FCF                          _TMR1L 0FCE                          _SPBRG 0FAF  
                        _TXREG 0FAD                    ?_UART_Write 0001                          _flags 005E  
                        _readX 0C94                          _readY 0BD2                          _fputc 09F8  
                        _width 0052                          _putch 0EC4                          tablat 0FF5  
                        ttemp5 0078                          ttemp6 007B                          ttemp7 007F  
                        status 0FD8                          wtemp8 0078                __end_of_sprintf 0D04  
              __initialization 0B8C                    ?i2_adc0Init 0001                    ?i2_adc1Init 0001  
                 __end_of_main 0C56        __end_of_TMR2_Initialize 0EA2                         ??_main 00F4  
                __activetblptr 0002                      ??_LEDInit 00F4               __end_of_adc0Init 0D86  
             __end_of_adc1Init 0DE8                         ?_readX 0001                         ?_readY 0001  
                       ?_fputc 0001                         _ADRESH 0FC4                         _ADRESL 0FC3  
                       _CCPR1L 0FBE                         _CCPR2L 0FBB               ___awdiv@dividend 0001  
                       ?_putch 0001                         i2l1001 0D1E                         i1l1811 0B52  
                       i1l1803 0B20                         i2l1004 0D36                         i1l1813 0B64  
                       i1l1805 0B24                         i1l1815 0B6E                         i1l1807 0B2C  
                       i2l1016 0AA0                         i1l1817 0B7A                         i1l1809 0B3E  
                       i1l1921 004A                         i2l1027 0EC4                         i1l1819 0B86  
                       i1l1923 0050                         i1l1917 002E                         i1l1687 0E22  
                       i1l1919 003C                         i1l1689 0E30                         i2l1511 08A4  
                       i2l1503 0888                         i2l1351 0DA8                         i2l1521 08D8  
                       i2l1513 08B2                         i2l1505 088A                         i2l1601 0608  
                       i2l1361 0DB4                         i2l1353 0DAC                         i2l1531 0912  
                       i2l1523 08E0                         i2l1515 08BA                         i2l1507 0898  
                       i2l1611 064C                         i2l1603 062A                         i2l1267 0E62  
                       i2l1363 0DB6                         i2l1355 0DAE                         i2l1371 0DEC  
                       i2l1541 0938                         i2l1533 091A                         i2l1525 08E8  
                       i2l1517 08BE                         i2l1509 08A0                         i2l1621 06BE  
                       i2l1613 0668                         i2l1605 0632                         i2l1365 0DBE  
                       i2l1357 0DB0                         i2l1381 0DF6                         i2l1373 0DEE  
                       i2l1543 0940                         i2l1535 091C                         i2l1527 08F6  
                       i2l1519 08C6                         i2l1551 095A                         i2l1631 073C  
                       i2l1623 06EE                         i2l1615 0684                         i2l1607 063E  
                       i2l1367 0DC6                         i2l1359 0DB2                         i2l1383 0DFE  
                       i2l1375 0DF0                         i2l1537 0922                         i2l1529 08FC  
                       i2l1561 098E                         i2l1553 0962                         i2l1633 074C  
                       i2l1625 070A                         i2l1617 069C                         i2l1641 0790  
                       i2l1609 0642                         i2l1801 0C06                         i2l1385 0E02  
                       i2l1377 0DF2                         i2l1369 0DE8                         i2l1539 0928  
                       i2l1571 09CA                         i2l1563 0996                         i2l1555 0966  
                       i2l1547 094A                         i2l1635 075E                         i2l1627 071C  
                       i2l1619 06A6                         i2l1651 0C56                         i2l1379 0DF4  
                       i2l1661 0E7A                         i2l1573 09D0                         i2l1565 099E  
                       i2l1557 0974                         i2l1549 094C                         i2l1637 0778  
                       i2l1629 072C                         i2l1645 079C                         i2l1653 0C5E  
                       i2l1901 0828                         i2l1663 0E88                         i2l1567 09AC  
                       i2l1575 09D6                         i2l1559 097C                         i2l1591 0A3E  
                       i2l1583 09F8                         i2l1639 077A                         i2l1655 0C6E  
                       i2l1671 0CE0                         i2l1911 0856                         i2l1903 083A  
                       i2l1681 0AAE                         i2l1577 09E6                         i2l1569 09C2  
                       i2l1593 0A70                         i2l1585 0A08                         i2l1657 0C8A  
                       i2l1673 0CE8                         i2l1913 0858                         i2l1905 083E  
                       i2l1683 0ADE                         i2l1579 09EE                         i2l1587 0A18  
                       i2l1675 0CF8                         i2l1667 0CD0                         i2l1907 0850  
                       i2l1915 085A                         i2l1685 0AE2                         i2l1597 0D04  
                       i2l1589 0A22                         i2l1669 0CD8                         i2l1909 0854  
                       i2l1679 0AA2                         i2l1599 0D12                         i2l1791 0CBE  
                       i2l1793 0CC8                         i2l1787 0C94                         i2l1795 0BD2  
                       i2l1891 07F8                         i2l1789 0CAA                         i2l1797 0BE8  
                       i2l1893 080A                         i2l1799 0BFC                         i2l1895 080E  
                       i2l1897 0820                         i2l1889 07EA                         i2l1899 0824  
                vfpfcnvrt@done 000F                         _Hi_ISR 0008                         _Lo_ISR 0018  
                 vfprintf@cfmt 0019                      ??___awdiv 0005                      ??___awmod 0005  
             ?_UART_Write_Text 0002                  ?i2_ANPinReset 0001                         _lenStr 0058  
                       _errorx 00BC                         _errory 00B4                         clear_0 0BB2  
                       clear_1 0BBE               ___awdiv@quotient 0007                ___awmod@divisor 0003  
                       isa$std 0001                ___awmod@counter 0005                         fputc@c 0001  
                 __pdataCOMRAM 005F                   __mediumconst 0600                         tblptrh 0FF7  
                       tblptrl 0FF6                         tblptru 0FF8                         putch@c 0001  
             __end_of_vfprintf 0C94                      ??_sprintf 001E              _SYSTEM_Initialize 0E4C  
                   __accesstop 0080        __end_of__initialization 0BC4             ?_SYSTEM_Initialize 0001  
                ___rparam_used 0001                  MyusartRead@ch 00F3                 __pcstackCOMRAM 0001  
          ??_SYSTEM_Initialize 00F4                 ??i2_ANPinReset 0001                   ??_ANPinReset 00F4  
                __end_of_readX 0CD0                  __end_of_readY 0C18                  __end_of_fputc 0AA2  
                __end_of_putch 0EC6               ?_TMR2_Initialize 0001                  ??_MyusartRead 00F3  
                ?i2_UART_Write 0001                        ??_readX 002A                        ??_readY 002A  
                      ??_fputc 0004      __end_of_SYSTEM_Initialize 0E62                        ??_putch 0001  
                   __pbssBANK0 0080             __end_of_ANPinReset 0E4C                        ?_Hi_ISR 0001  
             i2UART_Write@data 0001                        ?_Lo_ISR 0001                      ?_adc0Init 0001  
                    ?_adc1Init 0001                   readX@adcRead 0040                   readY@adcRead 0040  
                      _CCP1CON 0FBD                        _CCP2CON 0FBA                        _LEDInit 0EA2  
               ??i2_UART_Write 0001                   ??_UART_Write 00F2                        i1u81_20 0E30  
                      i1u81_21 0E2C                        i1u82_20 0B3E                        i1u82_21 0B3A  
                      i2u50_40 08B2                        i2u50_41 08AE                        i1u83_20 0B52  
                      i1u83_21 0B4E                        i2u51_40 08D8                        i2u51_41 08D4  
                      i1u84_20 0B64                        i1u84_21 0B60                        i2u52_40 08F6  
                      i2u60_40 09E6                        i2u52_41 08F2                        i2u60_41 09E2  
                      i2u53_40 0912                        i2u61_40 0A08                        i2u53_41 090E  
                      i2u61_41 0A04                        i2u54_40 0938                        i2u62_40 0A18  
                      i2u70_40 06BC                        i2u54_41 0934                        i2u62_41 0A14  
                      i2u55_40 095A                        i2u63_40 0A3E                        i2u71_40 071C  
                      i2u55_41 0956                        i2u63_41 0A3A                        i2u71_41 0718  
                      i2u80_40 0B1E                        i2u56_40 0974                        i2u64_40 0A70  
                      i2u72_40 072C                        i2u80_41 0B1A                        i2u56_41 0970  
                      i2u64_41 0A6C                        i2u72_41 0728                        i2u49_40 0898  
                      i2u57_40 098E                        i2u65_40 0D12                        i2u73_40 073C  
                      i2u49_41 0894                        i2u57_41 098A                        i2u65_41 0D0E  
                      i2u73_41 0738                        i2u58_40 09AC                        i2u74_40 074C  
                      i2u66_40 062A                        i2u58_41 09A8                        i2u74_41 0748  
                      i2u66_41 0626                        i2u59_40 09C2                        i2u75_40 078C  
                      i2u67_40 0668                        i2u59_41 09BE                        i2u75_41 0788  
                      i2u67_41 0664                        i2u68_40 0684                        i2u76_40 0C8A  
                      i2u68_41 0680                        i2u76_41 0C86                        i2u77_40 0E88  
                      i2u69_40 06BA                        i2u77_41 0E84                        i2u69_41 06B4  
                      i2u78_40 0ADA                        i2u78_47 0AD0                        i2u79_40 0B0E  
                      i2u95_40 07F8                        i2u95_41 07F4                        i2u79_47 0B04  
                      i2u96_40 080A                        i2u96_41 0806                        i2u97_40 0820  
                      i2u97_41 081C                        i2u98_40 083A                        i2u98_41 0836  
                      i2u99_40 0850                        i2u99_41 084C            __end_of_MyusartRead 0B8C  
                   _lastErrorx 0046                     _lastErrory 0042                        __Hparam 0000  
                      __Lparam 0000                   ??i2_adc0Init 0001                   ??i2_adc1Init 0001  
                   ??_adc0Init 00F4                     ??_adc1Init 00F4                        ___awdiv 0888  
                      ___awmod 094A             __end_of_UART_Write 0E36                      ?_vfprintf 0016  
                 __psmallconst 0600                        __pcinit 0B8C                        __ramtop 0600  
                      __ptext0 0C18                        __ptext1 0DCA                        __ptext2 0D64  
                      __ptext3 0E36                        __ptext4 0E4C                        __ptext5 0D86  
                      __ptext6 0E8E                        __ptext7 0EB4                        __ptext8 0EBC  
                      __ptext9 0D38                      _T1CONbits 0FCD          _OSCILLATOR_Initialize 0EB4  
                    _T2CONbits 0FCA               ___awmod@dividend 0001                        _sprintf 0CD0  
               __pintcode_body 07C0           __end_ofi2_ANPinReset 0E78           end_of_initialization 0BC4  
           __end_ofi2_adc0Init 0DCA             __end_ofi2_adc1Init 0E06                        fputc@fp 0003  
                __Lmediumconst 0000                        int_func 07C0              __end_of_vfpfcnvrt 07C0  
                    _RCSTAbits 0FAB                        postdec1 0FE5                        postdec2 0FDD  
                      postinc0 0FEE                        postinc1 0FE6                        postinc2 0FDE  
             vfpfcnvrt@convarg 0011                     ??_vfprintf 0019                 UART_Write@data 00F2  
                    _TRISAbits 0F92                      _TRISBbits 0F93                      _TRISCbits 0F94  
                  _MyusartRead 0B20                    _CCP1CONbits 0FBD                    _CCP2CONbits 0FBA  
                    _TXSTAbits 0FAC                 __end_of_Hi_ISR 0888                 __end_of_Lo_ISR 006C  
         __end_ofi2_UART_Write 0E8E   __end_of_INTERRUPT_Initialize 0EC4                    vfpfcnvrt@ap 000D  
                  vfpfcnvrt@cp 0010                    vfpfcnvrt@fp 000B                    _BAUDCONbits 0FB8  
                __pidataCOMRAM 0E06                 _ADC_Initialize 0D38         ?_OSCILLATOR_Initialize 0001  
          start_initialization 0B8C                    __end_of_abs 0D38              ??_UART_Initialize 00F4  
                     ??_Hi_ISR 00E8                     readX@value 002C                     readY@value 002C  
                     ??_Lo_ISR 0100                    vfprintf@fmt 0017         __end_of_ADC_Initialize 0D64  
                     ?_LEDInit 0001                    __pbssCOMRAM 0042                  __pcstackBANK0 00E8  
                __pcstackBANK1 0100                      __pintcode 0008                       ?___awdiv 0001  
                     ?___awmod 0001                ?_ADC_Initialize 0001                   i2_ANPinReset 0E62  
                  __pintcodelo 0018                      _xFiltered 00CC                      _yFiltered 00C4  
                  __smallconst 0600                       ?_sprintf 001A              ??_UART_Write_Text 0004  
         _INTERRUPT_Initialize 0EBC                      _integralx 004E                      _integraly 004A  
                     _LATAbits 0F89                       _LATBbits 0F8A                       _IPR1bits 0F9F  
                     _PIE1bits 0F9D                       i1u100_20 003C                       i1u100_21 0038  
                     i1u101_20 004A                       i1u101_21 0046                       _PIR1bits 0F9E  
                     _RCONbits 0FD0                      _vfpfcnvrt 0608                     _ADCON0bits 0FC2  
                   _ADCON1bits 0FC1                     _ADCON2bits 0FC0                   ?_MyusartRead 0001  
                 i2_UART_Write 0E78                     vfpfcnvrt@c 0015                      copy_data0 0BA0  
        ?_INTERRUPT_Initialize 0001              ??_TMR2_Initialize 00F4                       __Hrparam 0000  
                   vfprintf@ap 0018                       __Lrparam 0000                     vfprintf@fp 0016  
                     _adc0Init 0D64                       _adc1Init 0DCA        ??_OSCILLATOR_Initialize 00F4  
                   ?_vfpfcnvrt 000B                _UART_Initialize 0D86                     sprintf@fmt 001B  
                     __ptext10 0EA2                       __ptext20 0CD0                       __ptext12 0B20  
                     __ptext21 0C56                       __ptext13 0E1E                       __ptext22 0608  
                     __ptext23 09F8                       __ptext15 0DE8                       __ptext24 0EC4  
                     __ptext16 0DA8                       __ptext25 0D04                       __ptext17 0E62  
                     __ptext26 094A                       __ptext18 0BD2                       __ptext27 0888  
                     __ptext19 0C94                       __ptext28 0AA2                       __ptext29 0E78  
                     _lastRead 005C            UART_Write_Text@text 0002                       isa$xinst 0000  
                     int$flags 0077                     _ANPinReset 0E36                       _vfprintf 0C56  
                     _mystring 00D4                     _INTCONbits 0FF2         ??_INTERRUPT_Initialize 00F4  
                     intlevel1 0000                       intlevel2 0000                      sprintf@ap 001E  
             ??_ADC_Initialize 00F4        __end_of_UART_Initialize 0DA8                    ??_vfpfcnvrt 000E  
              _UART_Write_Text 0AA2                       sprintf@f 001F                       sprintf@s 001A  
                   _UART_Write 0E1E               UART_Write_Text@i 0006  
